(lp0
(lp1
ccopy_reg
_reconstructor
p2
(cmido.messages.messages
Message
p3
c__builtin__
object
p4
Ntp5
Rp6
(dp7
S'note'
p8
I67
sS'velocity'
p9
I73
sS'type'
p10
S'note_on'
p11
sS'channel'
p12
I0
sS'time'
p13
I0
sbag2
(g3
g4
Ntp14
Rp15
(dp16
g8
I63
sg9
I67
sg10
g11
sg12
I0
sg13
I0
sbag2
(g3
g4
Ntp17
Rp18
(dp19
g8
I62
sg9
I72
sg10
g11
sg12
I0
sg13
I0
sbag2
(g3
g4
Ntp20
Rp21
(dp22
g8
I60
sg9
I67
sg10
g11
sg12
I0
sg13
I0
sbaa(lp23
g2
(g3
g4
Ntp24
Rp25
(dp26
g8
I62
sg9
I65
sg10
g11
sg12
I0
sg13
I0
sbag2
(g3
g4
Ntp27
Rp28
(dp29
g8
I65
sg9
I71
sg10
g11
sg12
I0
sg13
I0
sbag2
(g3
g4
Ntp30
Rp31
(dp32
g8
I68
sg9
I70
sg10
g11
sg12
I0
sg13
I0
sbag2
(g3
g4
Ntp33
Rp34
(dp35
g8
I70
sg9
I67
sg10
g11
sg12
I0
sg13
I0
sbaa(lp36
g2
(g3
g4
Ntp37
Rp38
(dp39
g8
I63
sg9
I76
sg10
g11
sg12
I0
sg13
I0
sbag2
(g3
g4
Ntp40
Rp41
(dp42
g8
I70
sg9
I68
sg10
g11
sg12
I0
sg13
I0
sbag2
(g3
g4
Ntp43
Rp44
(dp45
g8
I62
sg9
I69
sg10
g11
sg12
I0
sg13
I0
sbaa(lp46
g2
(g3
g4
Ntp47
Rp48
(dp49
g8
I61
sg9
I77
sg10
g11
sg12
I0
sg13
I0
sbag2
(g3
g4
Ntp50
Rp51
(dp52
g8
I66
sg9
I70
sg10
g11
sg12
I0
sg13
I0
sbag2
(g3
g4
Ntp53
Rp54
(dp55
g8
I72
sg9
I79
sg10
g11
sg12
I0
sg13
I0
sbag2
(g3
g4
Ntp56
Rp57
(dp58
g8
I69
sg9
I71
sg10
g11
sg12
I0
sg13
I0
sbag2
(g3
g4
Ntp59
Rp60
(dp61
g8
I58
sg9
I67
sg10
g11
sg12
I0
sg13
I0
sbag2
(g3
g4
Ntp62
Rp63
(dp64
g8
I48
sg9
I63
sg10
g11
sg12
I0
sg13
I0
sbaa(lp65
g2
(g3
g4
Ntp66
Rp67
(dp68
g8
I63
sg9
I69
sg10
S'note_on'
p69
sg12
I0
sg13
I0
sbag2
(g3
g4
Ntp70
Rp71
(dp72
g8
I62
sg9
I72
sg10
g69
sg12
I0
sg13
I0
sbag2
(g3
g4
Ntp73
Rp74
(dp75
g8
I60
sg9
I59
sg10
g69
sg12
I0
sg13
I0
sbaa(lp76
g2
(g3
g4
Ntp77
Rp78
(dp79
g8
I71
sg9
I63
sg10
S'note_on'
p80
sg12
I0
sg13
I0
sbag2
(g3
g4
Ntp81
Rp82
(dp83
g8
I68
sg9
I62
sg10
g80
sg12
I0
sg13
I0
sbag2
(g3
g4
Ntp84
Rp85
(dp86
g8
I64
sg9
I58
sg10
g80
sg12
I0
sg13
I0
sbag2
(g3
g4
Ntp87
Rp88
(dp89
g8
I60
sg9
I50
sg10
g80
sg12
I0
sg13
I0
sbag2
(g3
g4
Ntp90
Rp91
(dp92
g8
I54
sg9
I51
sg10
g80
sg12
I0
sg13
I0
sbaa(lp93
g2
(g3
g4
Ntp94
Rp95
(dp96
g8
I67
sg9
I73
sg10
g80
sg12
I0
sg13
I0
sbag2
(g3
g4
Ntp97
Rp98
(dp99
g8
I62
sg9
I63
sg10
g80
sg12
I0
sg13
I0
sbag2
(g3
g4
Ntp100
Rp101
(dp102
g8
I57
sg9
I63
sg10
g80
sg12
I0
sg13
I0
sbag2
(g3
g4
Ntp103
Rp104
(dp105
g8
I71
sg9
I68
sg10
g80
sg12
I0
sg13
I0
sbaa(lp106
g2
(g3
g4
Ntp107
Rp108
(dp109
g8
I66
sg9
I70
sg10
g80
sg12
I0
sg13
I0
sbag2
(g3
g4
Ntp110
Rp111
(dp112
g8
I65
sg9
I70
sg10
g80
sg12
I0
sg13
I0
sbag2
(g3
g4
Ntp113
Rp114
(dp115
g8
I70
sg9
I70
sg10
g80
sg12
I0
sg13
I0
sbag2
(g3
g4
Ntp116
Rp117
(dp118
g8
I75
sg9
I70
sg10
g80
sg12
I0
sg13
I0
sbag2
(g3
g4
Ntp119
Rp120
(dp121
g8
I60
sg9
I59
sg10
g80
sg12
I0
sg13
I0
sbag2
(g3
g4
Ntp122
Rp123
(dp124
g8
I54
sg9
I59
sg10
g80
sg12
I0
sg13
I0
sbaa(lp125
g2
(g3
g4
Ntp126
Rp127
(dp128
g8
I76
sg9
I75
sg10
g80
sg12
I0
sg13
I0
sbag2
(g3
g4
Ntp129
Rp130
(dp131
g8
I64
sg9
I67
sg10
g80
sg12
I0
sg13
I0
sbag2
(g3
g4
Ntp132
Rp133
(dp134
g8
I69
sg9
I73
sg10
g80
sg12
I0
sg13
I0
sbag2
(g3
g4
Ntp135
Rp136
(dp137
g8
I60
sg9
I57
sg10
g80
sg12
I0
sg13
I0
sbag2
(g3
g4
Ntp138
Rp139
(dp140
g8
I52
sg9
I59
sg10
g80
sg12
I0
sg13
I0
sbaa(lp141
g2
(g3
g4
Ntp142
Rp143
(dp144
g8
I72
sg9
I84
sg10
g80
sg12
I0
sg13
I0
sbag2
(g3
g4
Ntp145
Rp146
(dp147
g8
I63
sg9
I68
sg10
g80
sg12
I0
sg13
I0
sbag2
(g3
g4
Ntp148
Rp149
(dp150
g8
I67
sg9
I76
sg10
g80
sg12
I0
sg13
I0
sbag2
(g3
g4
Ntp151
Rp152
(dp153
g8
I58
sg9
I69
sg10
g80
sg12
I0
sg13
I0
sbag2
(g3
g4
Ntp154
Rp155
(dp156
g8
I53
sg9
I51
sg10
g80
sg12
I0
sg13
I0
sbaa(lp157
g2
(g3
g4
Ntp158
Rp159
(dp160
g8
I67
sg9
I74
sg10
g80
sg12
I0
sg13
I0
sbag2
(g3
g4
Ntp161
Rp162
(dp163
g8
I59
sg9
I51
sg10
g80
sg12
I0
sg13
I0
sbag2
(g3
g4
Ntp164
Rp165
(dp166
g8
I50
sg9
I53
sg10
g80
sg12
I0
sg13
I0
sbaa(lp167
g2
(g3
g4
Ntp168
Rp169
(dp170
g8
I62
sg9
I63
sg10
g80
sg12
I0
sg13
I0
sbag2
(g3
g4
Ntp171
Rp172
(dp173
g8
I59
sg9
I40
sg10
g80
sg12
I0
sg13
I0
sbag2
(g3
g4
Ntp174
Rp175
(dp176
g8
I50
sg9
I55
sg10
g80
sg12
I0
sg13
I0
sbaa(lp177
g2
(g3
g4
Ntp178
Rp179
(dp180
g8
I70
sg9
I68
sg10
g80
sg12
I0
sg13
I0
sbag2
(g3
g4
Ntp181
Rp182
(dp183
g8
I65
sg9
I57
sg10
g80
sg12
I0
sg13
I0
sbag2
(g3
g4
Ntp184
Rp185
(dp186
g8
I62
sg9
I48
sg10
g80
sg12
I0
sg13
I0
sbag2
(g3
g4
Ntp187
Rp188
(dp189
g8
I60
sg9
I54
sg10
g80
sg12
I0
sg13
I0
sbaa(lp190
g2
(g3
g4
Ntp191
Rp192
(dp193
g8
I67
sg9
I71
sg10
g80
sg12
I0
sg13
I0
sbag2
(g3
g4
Ntp194
Rp195
(dp196
g8
I57
sg9
I53
sg10
g80
sg12
I0
sg13
I0
sbag2
(g3
g4
Ntp197
Rp198
(dp199
g8
I62
sg9
I61
sg10
g80
sg12
I0
sg13
I0
sbag2
(g3
g4
Ntp200
Rp201
(dp202
g8
I59
sg9
I53
sg10
g80
sg12
I0
sg13
I0
sbaa(lp203
g2
(g3
g4
Ntp204
Rp205
(dp206
g8
I70
sg9
I87
sg10
g80
sg12
I0
sg13
I0
sbag2
(g3
g4
Ntp207
Rp208
(dp209
g8
I65
sg9
I74
sg10
g80
sg12
I0
sg13
I0
sbag2
(g3
g4
Ntp210
Rp211
(dp212
g8
I55
sg9
I67
sg10
g80
sg12
I0
sg13
I0
sbag2
(g3
g4
Ntp213
Rp214
(dp215
g8
I64
sg9
I63
sg10
g80
sg12
I0
sg13
I0
sbaa(lp216
g2
(g3
g4
Ntp217
Rp218
(dp219
g8
I65
sg9
I66
sg10
g80
sg12
I0
sg13
I0
sbag2
(g3
g4
Ntp220
Rp221
(dp222
g8
I74
sg9
I74
sg10
g80
sg12
I0
sg13
I0
sbag2
(g3
g4
Ntp223
Rp224
(dp225
g8
I70
sg9
I71
sg10
g80
sg12
I0
sg13
I0
sbag2
(g3
g4
Ntp226
Rp227
(dp228
g8
I77
sg9
I71
sg10
g80
sg12
I0
sg13
I0
sbag2
(g3
g4
Ntp229
Rp230
(dp231
g8
I60
sg9
I52
sg10
g80
sg12
I0
sg13
I0
sbag2
(g3
g4
Ntp232
Rp233
(dp234
g8
I56
sg9
I65
sg10
g80
sg12
I0
sg13
I0
sbaa(lp235
g2
(g3
g4
Ntp236
Rp237
(dp238
g8
I74
sg9
I75
sg10
g80
sg12
I0
sg13
I0
sbag2
(g3
g4
Ntp239
Rp240
(dp241
g8
I63
sg9
I69
sg10
g80
sg12
I0
sg13
I0
sbag2
(g3
g4
Ntp242
Rp243
(dp244
g8
I79
sg9
I78
sg10
g80
sg12
I0
sg13
I0
sbag2
(g3
g4
Ntp245
Rp246
(dp247
g8
I67
sg9
I68
sg10
g80
sg12
I0
sg13
I0
sbag2
(g3
g4
Ntp248
Rp249
(dp250
g8
I72
sg9
I71
sg10
g80
sg12
I0
sg13
I0
sbag2
(g3
g4
Ntp251
Rp252
(dp253
g8
I55
sg9
I63
sg10
g80
sg12
I0
sg13
I0
sbaa(lp254
g2
(g3
g4
Ntp255
Rp256
(dp257
g8
I65
sg9
I62
sg10
g80
sg12
I0
sg13
I0
sbag2
(g3
g4
Ntp258
Rp259
(dp260
g8
I58
sg9
I63
sg10
g80
sg12
I0
sg13
I0
sbag2
(g3
g4
Ntp261
Rp262
(dp263
g8
I62
sg9
I56
sg10
g80
sg12
I0
sg13
I0
sbaa(lp264
g2
(g3
g4
Ntp265
Rp266
(dp267
g8
I67
sg9
I71
sg10
g80
sg12
I0
sg13
I0
sbag2
(g3
g4
Ntp268
Rp269
(dp270
g8
I60
sg9
I56
sg10
g80
sg12
I0
sg13
I0
sbag2
(g3
g4
Ntp271
Rp272
(dp273
g8
I64
sg9
I63
sg10
g80
sg12
I0
sg13
I0
sbag2
(g3
g4
Ntp274
Rp275
(dp276
g8
I56
sg9
I53
sg10
g80
sg12
I0
sg13
I0
sbaa(lp277
g2
(g3
g4
Ntp278
Rp279
(dp280
g8
I67
sg9
I66
sg10
g80
sg12
I0
sg13
I0
sbag2
(g3
g4
Ntp281
Rp282
(dp283
g8
I63
sg9
I57
sg10
g80
sg12
I0
sg13
I0
sbag2
(g3
g4
Ntp284
Rp285
(dp286
g8
I60
sg9
I49
sg10
g80
sg12
I0
sg13
I0
sbag2
(g3
g4
Ntp287
Rp288
(dp289
g8
I56
sg9
I61
sg10
g80
sg12
I0
sg13
I0
sbaa(lp290
g2
(g3
g4
Ntp291
Rp292
(dp293
g8
I60
sg9
I61
sg10
g80
sg12
I0
sg13
I0
sbag2
(g3
g4
Ntp294
Rp295
(dp296
g8
I63
sg9
I61
sg10
g80
sg12
I0
sg13
I0
sbag2
(g3
g4
Ntp297
Rp298
(dp299
g8
I70
sg9
I73
sg10
g80
sg12
I0
sg13
I0
sbag2
(g3
g4
Ntp300
Rp301
(dp302
g8
I67
sg9
I61
sg10
g80
sg12
I0
sg13
I0
sbag2
(g3
g4
Ntp303
Rp304
(dp305
g8
I58
sg9
I74
sg10
g80
sg12
I0
sg13
I0
sbaa(lp306
g2
(g3
g4
Ntp307
Rp308
(dp309
g8
I74
sg9
I67
sg10
g80
sg12
I0
sg13
I0
sbag2
(g3
g4
Ntp310
Rp311
(dp312
g8
I57
sg9
I48
sg10
g80
sg12
I0
sg13
I0
sbag2
(g3
g4
Ntp313
Rp314
(dp315
g8
I65
sg9
I62
sg10
g80
sg12
I0
sg13
I0
sbag2
(g3
g4
Ntp316
Rp317
(dp318
g8
I77
sg9
I76
sg10
g80
sg12
I0
sg13
I0
sbag2
(g3
g4
Ntp319
Rp320
(dp321
g8
I60
sg9
I50
sg10
g80
sg12
I0
sg13
I0
sbaa(lp322
g2
(g3
g4
Ntp323
Rp324
(dp325
g8
I79
sg9
I74
sg10
g80
sg12
I0
sg13
I0
sbag2
(g3
g4
Ntp326
Rp327
(dp328
g8
I65
sg9
I55
sg10
g80
sg12
I0
sg13
I0
sbag2
(g3
g4
Ntp329
Rp330
(dp331
g8
I56
sg9
I54
sg10
g80
sg12
I0
sg13
I0
sbag2
(g3
g4
Ntp332
Rp333
(dp334
g8
I72
sg9
I57
sg10
g80
sg12
I0
sg13
I0
sbaa(lp335
g2
(g3
g4
Ntp336
Rp337
(dp338
g8
I63
sg9
I59
sg10
g80
sg12
I0
sg13
I0
sbag2
(g3
g4
Ntp339
Rp340
(dp341
g8
I60
sg9
I42
sg10
g80
sg12
I0
sg13
I0
sbag2
(g3
g4
Ntp342
Rp343
(dp344
g8
I62
sg9
I55
sg10
g80
sg12
I0
sg13
I0
sbag2
(g3
g4
Ntp345
Rp346
(dp347
g8
I51
sg9
I51
sg10
g80
sg12
I0
sg13
I0
sbaa(lp348
g2
(g3
g4
Ntp349
Rp350
(dp351
g8
I62
sg9
I59
sg10
g80
sg12
I0
sg13
I0
sbag2
(g3
g4
Ntp352
Rp353
(dp354
g8
I60
sg9
I50
sg10
g80
sg12
I0
sg13
I0
sbag2
(g3
g4
Ntp355
Rp356
(dp357
g8
I57
sg9
I41
sg10
g80
sg12
I0
sg13
I0
sbag2
(g3
g4
Ntp358
Rp359
(dp360
g8
I55
sg9
I41
sg10
g80
sg12
I0
sg13
I0
sbaa(lp361
g2
(g3
g4
Ntp362
Rp363
(dp364
g8
I63
sg9
I65
sg10
g80
sg12
I0
sg13
I0
sbag2
(g3
g4
Ntp365
Rp366
(dp367
g8
I60
sg9
I49
sg10
g80
sg12
I0
sg13
I0
sbag2
(g3
g4
Ntp368
Rp369
(dp370
g8
I68
sg9
I66
sg10
g80
sg12
I0
sg13
I0
sbaa(lp371
g2
(g3
g4
Ntp372
Rp373
(dp374
g8
I67
sg9
I66
sg10
g80
sg12
I0
sg13
I0
sbag2
(g3
g4
Ntp375
Rp376
(dp377
g8
I63
sg9
I63
sg10
g80
sg12
I0
sg13
I0
sbag2
(g3
g4
Ntp378
Rp379
(dp380
g8
I58
sg9
I59
sg10
g80
sg12
I0
sg13
I0
sbaa(lp381
g2
(g3
g4
Ntp382
Rp383
(dp384
g8
I69
sg9
I71
sg10
g80
sg12
I0
sg13
I0
sbag2
(g3
g4
Ntp385
Rp386
(dp387
g8
I65
sg9
I73
sg10
g80
sg12
I0
sg13
I0
sbag2
(g3
g4
Ntp388
Rp389
(dp390
g8
I60
sg9
I64
sg10
g80
sg12
I0
sg13
I0
sbaa(lp391
g2
(g3
g4
Ntp392
Rp393
(dp394
g8
I67
sg9
I70
sg10
g80
sg12
I0
sg13
I0
sbag2
(g3
g4
Ntp395
Rp396
(dp397
g8
I62
sg9
I71
sg10
g80
sg12
I0
sg13
I0
sbag2
(g3
g4
Ntp398
Rp399
(dp400
g8
I59
sg9
I67
sg10
g80
sg12
I0
sg13
I0
sbaa(lp401
g2
(g3
g4
Ntp402
Rp403
(dp404
g8
I62
sg9
I67
sg10
g80
sg12
I0
sg13
I0
sbag2
(g3
g4
Ntp405
Rp406
(dp407
g8
I54
sg9
I55
sg10
g80
sg12
I0
sg13
I0
sbag2
(g3
g4
Ntp408
Rp409
(dp410
g8
I58
sg9
I63
sg10
g80
sg12
I0
sg13
I0
sbag2
(g3
g4
Ntp411
Rp412
(dp413
g8
I55
sg9
I59
sg10
g80
sg12
I0
sg13
I0
sbaa(lp414
g2
(g3
g4
Ntp415
Rp416
(dp417
g8
I62
sg9
I58
sg10
g80
sg12
I0
sg13
I0
sbag2
(g3
g4
Ntp418
Rp419
(dp420
g8
I70
sg9
I58
sg10
g80
sg12
I0
sg13
I0
sbag2
(g3
g4
Ntp421
Rp422
(dp423
g8
I67
sg9
I56
sg10
g80
sg12
I0
sg13
I0
sbag2
(g3
g4
Ntp424
Rp425
(dp426
g8
I63
sg9
I56
sg10
g80
sg12
I0
sg13
I0
sbaa(lp427
g2
(g3
g4
Ntp428
Rp429
(dp430
g8
I69
sg9
I67
sg10
g80
sg12
I0
sg13
I0
sbag2
(g3
g4
Ntp431
Rp432
(dp433
g8
I74
sg9
I63
sg10
g80
sg12
I0
sg13
I0
sbag2
(g3
g4
Ntp434
Rp435
(dp436
g8
I62
sg9
I56
sg10
g80
sg12
I0
sg13
I0
sbag2
(g3
g4
Ntp437
Rp438
(dp439
g8
I67
sg9
I57
sg10
g80
sg12
I0
sg13
I0
sbaa(lp440
g2
(g3
g4
Ntp441
Rp442
(dp443
g8
I65
sg9
I62
sg10
g80
sg12
I0
sg13
I0
sbag2
(g3
g4
Ntp444
Rp445
(dp446
g8
I75
sg9
I67
sg10
g80
sg12
I0
sg13
I0
sbag2
(g3
g4
Ntp447
Rp448
(dp449
g8
I70
sg9
I62
sg10
g80
sg12
I0
sg13
I0
sbag2
(g3
g4
Ntp450
Rp451
(dp452
g8
I72
sg9
I61
sg10
g80
sg12
I0
sg13
I0
sbaa(lp453
g2
(g3
g4
Ntp454
Rp455
(dp456
g8
I67
sg9
I62
sg10
g80
sg12
I0
sg13
I0
sbag2
(g3
g4
Ntp457
Rp458
(dp459
g8
I65
sg9
I67
sg10
g80
sg12
I0
sg13
I0
sbag2
(g3
g4
Ntp460
Rp461
(dp462
g8
I62
sg9
I67
sg10
g80
sg12
I0
sg13
I0
sbaa(lp463
g2
(g3
g4
Ntp464
Rp465
(dp466
g8
I60
sg9
I57
sg10
g80
sg12
I0
sg13
I0
sbag2
(g3
g4
Ntp467
Rp468
(dp469
g8
I65
sg9
I71
sg10
g80
sg12
I0
sg13
I0
sbag2
(g3
g4
Ntp470
Rp471
(dp472
g8
I67
sg9
I64
sg10
g80
sg12
I0
sg13
I0
sbaa(lp473
g2
(g3
g4
Ntp474
Rp475
(dp476
g8
I65
sg9
I61
sg10
g80
sg12
I0
sg13
I0
sbag2
(g3
g4
Ntp477
Rp478
(dp479
g8
I58
sg9
I63
sg10
g80
sg12
I0
sg13
I0
sbag2
(g3
g4
Ntp480
Rp481
(dp482
g8
I61
sg9
I63
sg10
g80
sg12
I0
sg13
I0
sbaa(lp483
g2
(g3
g4
Ntp484
Rp485
(dp486
g8
I62
sg9
I75
sg10
g80
sg12
I0
sg13
I0
sbag2
(g3
g4
Ntp487
Rp488
(dp489
g8
I67
sg9
I73
sg10
g80
sg12
I0
sg13
I0
sbag2
(g3
g4
Ntp490
Rp491
(dp492
g8
I57
sg9
I62
sg10
g80
sg12
I0
sg13
I0
sbaa(lp493
g2
(g3
g4
Ntp494
Rp495
(dp496
g8
I60
sg9
I67
sg10
g80
sg12
I0
sg13
I0
sbag2
(g3
g4
Ntp497
Rp498
(dp499
g8
I72
sg9
I71
sg10
g80
sg12
I0
sg13
I0
sbag2
(g3
g4
Ntp500
Rp501
(dp502
g8
I67
sg9
I78
sg10
g80
sg12
I0
sg13
I0
sbaa(lp503
g2
(g3
g4
Ntp504
Rp505
(dp506
g8
I68
sg9
I73
sg10
g80
sg12
I0
sg13
I0
sbag2
(g3
g4
Ntp507
Rp508
(dp509
g8
I56
sg9
I71
sg10
g80
sg12
I0
sg13
I0
sbag2
(g3
g4
Ntp510
Rp511
(dp512
g8
I62
sg9
I69
sg10
g80
sg12
I0
sg13
I0
sbaa(lp513
g2
(g3
g4
Ntp514
Rp515
(dp516
g8
I57
sg9
I53
sg10
g80
sg12
I0
sg13
I0
sbag2
(g3
g4
Ntp517
Rp518
(dp519
g8
I64
sg9
I61
sg10
g80
sg12
I0
sg13
I0
sbag2
(g3
g4
Ntp520
Rp521
(dp522
g8
I59
sg9
I59
sg10
g80
sg12
I0
sg13
I0
sbag2
(g3
g4
Ntp523
Rp524
(dp525
g8
I60
sg9
I63
sg10
g80
sg12
I0
sg13
I0
sbaa(lp526
g2
(g3
g4
Ntp527
Rp528
(dp529
g8
I68
sg9
I58
sg10
g80
sg12
I0
sg13
I0
sbag2
(g3
g4
Ntp530
Rp531
(dp532
g8
I58
sg9
I54
sg10
g80
sg12
I0
sg13
I0
sbag2
(g3
g4
Ntp533
Rp534
(dp535
g8
I63
sg9
I56
sg10
g80
sg12
I0
sg13
I0
sbag2
(g3
g4
Ntp536
Rp537
(dp538
g8
I65
sg9
I60
sg10
g80
sg12
I0
sg13
I0
sbaa(lp539
g2
(g3
g4
Ntp540
Rp541
(dp542
g8
I61
sg9
I61
sg10
g80
sg12
I0
sg13
I0
sbag2
(g3
g4
Ntp543
Rp544
(dp545
g8
I70
sg9
I67
sg10
g80
sg12
I0
sg13
I0
sbag2
(g3
g4
Ntp546
Rp547
(dp548
g8
I66
sg9
I66
sg10
g80
sg12
I0
sg13
I0
sbag2
(g3
g4
Ntp549
Rp550
(dp551
g8
I65
sg9
I64
sg10
g80
sg12
I0
sg13
I0
sbaa(lp552
g2
(g3
g4
Ntp553
Rp554
(dp555
g8
I64
sg9
I58
sg10
g80
sg12
I0
sg13
I0
sbag2
(g3
g4
Ntp556
Rp557
(dp558
g8
I69
sg9
I57
sg10
g80
sg12
I0
sg13
I0
sbag2
(g3
g4
Ntp559
Rp560
(dp561
g8
I65
sg9
I64
sg10
g80
sg12
I0
sg13
I0
sbag2
(g3
g4
Ntp562
Rp563
(dp564
g8
I60
sg9
I59
sg10
g80
sg12
I0
sg13
I0
sbaa(lp565
g2
(g3
g4
Ntp566
Rp567
(dp568
g8
I64
sg9
I68
sg10
g80
sg12
I0
sg13
I0
sbag2
(g3
g4
Ntp569
Rp570
(dp571
g8
I71
sg9
I75
sg10
g80
sg12
I0
sg13
I0
sbag2
(g3
g4
Ntp572
Rp573
(dp574
g8
I60
sg9
I63
sg10
g80
sg12
I0
sg13
I0
sbag2
(g3
g4
Ntp575
Rp576
(dp577
g8
I67
sg9
I73
sg10
g80
sg12
I0
sg13
I0
sbaa(lp578
g2
(g3
g4
Ntp579
Rp580
(dp581
g8
I74
sg9
I75
sg10
g80
sg12
I0
sg13
I0
sbag2
(g3
g4
Ntp582
Rp583
(dp584
g8
I64
sg9
I63
sg10
g80
sg12
I0
sg13
I0
sbag2
(g3
g4
Ntp585
Rp586
(dp587
g8
I71
sg9
I62
sg10
g80
sg12
I0
sg13
I0
sbag2
(g3
g4
Ntp588
Rp589
(dp590
g8
I57
sg9
I72
sg10
g80
sg12
I0
sg13
I0
sbag2
(g3
g4
Ntp591
Rp592
(dp593
g8
I67
sg9
I66
sg10
g80
sg12
I0
sg13
I0
sbaa(lp594
g2
(g3
g4
Ntp595
Rp596
(dp597
g8
I57
sg9
I63
sg10
g80
sg12
I0
sg13
I0
sbag2
(g3
g4
Ntp598
Rp599
(dp600
g8
I64
sg9
I65
sg10
g80
sg12
I0
sg13
I0
sbag2
(g3
g4
Ntp601
Rp602
(dp603
g8
I67
sg9
I66
sg10
g80
sg12
I0
sg13
I0
sbag2
(g3
g4
Ntp604
Rp605
(dp606
g8
I78
sg9
I74
sg10
g80
sg12
I0
sg13
I0
sbag2
(g3
g4
Ntp607
Rp608
(dp609
g8
I71
sg9
I67
sg10
g80
sg12
I0
sg13
I0
sbag2
(g3
g4
Ntp610
Rp611
(dp612
g8
I74
sg9
I67
sg10
g80
sg12
I0
sg13
I0
sbaa(lp613
g2
(g3
g4
Ntp614
Rp615
(dp616
g8
I79
sg9
I74
sg10
g80
sg12
I0
sg13
I0
sbag2
(g3
g4
Ntp617
Rp618
(dp619
g8
I68
sg9
I58
sg10
g80
sg12
I0
sg13
I0
sbag2
(g3
g4
Ntp620
Rp621
(dp622
g8
I76
sg9
I62
sg10
g80
sg12
I0
sg13
I0
sbag2
(g3
g4
Ntp623
Rp624
(dp625
g8
I62
sg9
I59
sg10
g80
sg12
I0
sg13
I0
sbag2
(g3
g4
Ntp626
Rp627
(dp628
g8
I58
sg9
I59
sg10
g80
sg12
I0
sg13
I0
sbag2
(g3
g4
Ntp629
Rp630
(dp631
g8
I72
sg9
I58
sg10
g80
sg12
I0
sg13
I0
sbaa(lp632
g2
(g3
g4
Ntp633
Rp634
(dp635
g8
I68
sg9
I68
sg10
g80
sg12
I0
sg13
I0
sbag2
(g3
g4
Ntp636
Rp637
(dp638
g8
I82
sg9
I84
sg10
g80
sg12
I0
sg13
I0
sbag2
(g3
g4
Ntp639
Rp640
(dp641
g8
I79
sg9
I73
sg10
g80
sg12
I0
sg13
I0
sbag2
(g3
g4
Ntp642
Rp643
(dp644
g8
I63
sg9
I65
sg10
g80
sg12
I0
sg13
I0
sbag2
(g3
g4
Ntp645
Rp646
(dp647
g8
I72
sg9
I70
sg10
g80
sg12
I0
sg13
I0
sbaa(lp648
g2
(g3
g4
Ntp649
Rp650
(dp651
g8
I74
sg9
I76
sg10
g80
sg12
I0
sg13
I0
sbag2
(g3
g4
Ntp652
Rp653
(dp654
g8
I60
sg9
I57
sg10
g80
sg12
I0
sg13
I0
sbag2
(g3
g4
Ntp655
Rp656
(dp657
g8
I70
sg9
I74
sg10
g80
sg12
I0
sg13
I0
sbag2
(g3
g4
Ntp658
Rp659
(dp660
g8
I55
sg9
I68
sg10
g80
sg12
I0
sg13
I0
sbag2
(g3
g4
Ntp661
Rp662
(dp663
g8
I64
sg9
I69
sg10
g80
sg12
I0
sg13
I0
sbaa(lp664
g2
(g3
g4
Ntp665
Rp666
(dp667
g8
I74
sg9
I71
sg10
g80
sg12
I0
sg13
I0
sbag2
(g3
g4
Ntp668
Rp669
(dp670
g8
I77
sg9
I75
sg10
g80
sg12
I0
sg13
I0
sbag2
(g3
g4
Ntp671
Rp672
(dp673
g8
I63
sg9
I65
sg10
g80
sg12
I0
sg13
I0
sbag2
(g3
g4
Ntp674
Rp675
(dp676
g8
I67
sg9
I66
sg10
g80
sg12
I0
sg13
I0
sbag2
(g3
g4
Ntp677
Rp678
(dp679
g8
I58
sg9
I67
sg10
g80
sg12
I0
sg13
I0
sbaa(lp680
g2
(g3
g4
Ntp681
Rp682
(dp683
g8
I59
sg9
I62
sg10
g80
sg12
I0
sg13
I0
sbag2
(g3
g4
Ntp684
Rp685
(dp686
g8
I54
sg9
I67
sg10
g80
sg12
I0
sg13
I0
sbag2
(g3
g4
Ntp687
Rp688
(dp689
g8
I70
sg9
I70
sg10
g80
sg12
I0
sg13
I0
sbag2
(g3
g4
Ntp690
Rp691
(dp692
g8
I73
sg9
I80
sg10
g80
sg12
I0
sg13
I0
sbag2
(g3
g4
Ntp693
Rp694
(dp695
g8
I63
sg9
I68
sg10
g80
sg12
I0
sg13
I0
sbag2
(g3
g4
Ntp696
Rp697
(dp698
g8
I49
sg9
I64
sg10
g80
sg12
I0
sg13
I0
sbaa(lp699
g2
(g3
g4
Ntp700
Rp701
(dp702
g8
I69
sg9
I68
sg10
g80
sg12
I0
sg13
I0
sbag2
(g3
g4
Ntp703
Rp704
(dp705
g8
I64
sg9
I56
sg10
g80
sg12
I0
sg13
I0
sbag2
(g3
g4
Ntp706
Rp707
(dp708
g8
I62
sg9
I58
sg10
g80
sg12
I0
sg13
I0
sbag2
(g3
g4
Ntp709
Rp710
(dp711
g8
I60
sg9
I51
sg10
g80
sg12
I0
sg13
I0
sbag2
(g3
g4
Ntp712
Rp713
(dp714
g8
I55
sg9
I51
sg10
g80
sg12
I0
sg13
I0
sbaa(lp715
g2
(g3
g4
Ntp716
Rp717
(dp718
g8
I69
sg9
I64
sg10
g80
sg12
I0
sg13
I0
sbag2
(g3
g4
Ntp719
Rp720
(dp721
g8
I72
sg9
I79
sg10
g80
sg12
I0
sg13
I0
sbag2
(g3
g4
Ntp722
Rp723
(dp724
g8
I66
sg9
I64
sg10
g80
sg12
I0
sg13
I0
sbag2
(g3
g4
Ntp725
Rp726
(dp727
g8
I61
sg9
I65
sg10
g80
sg12
I0
sg13
I0
sbag2
(g3
g4
Ntp728
Rp729
(dp730
g8
I58
sg9
I61
sg10
g80
sg12
I0
sg13
I0
sbag2
(g3
g4
Ntp731
Rp732
(dp733
g8
I52
sg9
I61
sg10
g80
sg12
I0
sg13
I0
sbaa(lp734
g2
(g3
g4
Ntp735
Rp736
(dp737
g8
I77
sg9
I78
sg10
g80
sg12
I0
sg13
I0
sbag2
(g3
g4
Ntp738
Rp739
(dp740
g8
I74
sg9
I63
sg10
g80
sg12
I0
sg13
I0
sbag2
(g3
g4
Ntp741
Rp742
(dp743
g8
I71
sg9
I62
sg10
g80
sg12
I0
sg13
I0
sbag2
(g3
g4
Ntp744
Rp745
(dp746
g8
I66
sg9
I61
sg10
g80
sg12
I0
sg13
I0
sbag2
(g3
g4
Ntp747
Rp748
(dp749
g8
I63
sg9
I61
sg10
g80
sg12
I0
sg13
I0
sbag2
(g3
g4
Ntp750
Rp751
(dp752
g8
I57
sg9
I62
sg10
g80
sg12
I0
sg13
I0
sbaa(lp753
g2
(g3
g4
Ntp754
Rp755
(dp756
g8
I76
sg9
I78
sg10
g80
sg12
I0
sg13
I0
sbag2
(g3
g4
Ntp757
Rp758
(dp759
g8
I60
sg9
I71
sg10
g80
sg12
I0
sg13
I0
sbag2
(g3
g4
Ntp760
Rp761
(dp762
g8
I69
sg9
I76
sg10
g80
sg12
I0
sg13
I0
sbag2
(g3
g4
Ntp763
Rp764
(dp765
g8
I50
sg9
I75
sg10
g80
sg12
I0
sg13
I0
sbag2
(g3
g4
Ntp766
Rp767
(dp768
g8
I65
sg9
I68
sg10
g80
sg12
I0
sg13
I0
sbaa(lp769
g2
(g3
g4
Ntp770
Rp771
(dp772
g8
I81
sg9
I75
sg10
g80
sg12
I0
sg13
I0
sbag2
(g3
g4
Ntp773
Rp774
(dp775
g8
I55
sg9
I65
sg10
g80
sg12
I0
sg13
I0
sbag2
(g3
g4
Ntp776
Rp777
(dp778
g8
I74
sg9
I73
sg10
g80
sg12
I0
sg13
I0
sbag2
(g3
g4
Ntp779
Rp780
(dp781
g8
I65
sg9
I62
sg10
g80
sg12
I0
sg13
I0
sbag2
(g3
g4
Ntp782
Rp783
(dp784
g8
I70
sg9
I68
sg10
g80
sg12
I0
sg13
I0
sbaa(lp785
g2
(g3
g4
Ntp786
Rp787
(dp788
g8
I77
sg9
I68
sg10
g80
sg12
I0
sg13
I0
sbag2
(g3
g4
Ntp789
Rp790
(dp791
g8
I66
sg9
I70
sg10
g80
sg12
I0
sg13
I0
sbag2
(g3
g4
Ntp792
Rp793
(dp794
g8
I70
sg9
I66
sg10
g80
sg12
I0
sg13
I0
sbag2
(g3
g4
Ntp795
Rp796
(dp797
g8
I60
sg9
I65
sg10
g80
sg12
I0
sg13
I0
sbaa(lp798
g2
(g3
g4
Ntp799
Rp800
(dp801
g8
I75
sg9
I78
sg10
g80
sg12
I0
sg13
I0
sbag2
(g3
g4
Ntp802
Rp803
(dp804
g8
I68
sg9
I67
sg10
g80
sg12
I0
sg13
I0
sbag2
(g3
g4
Ntp805
Rp806
(dp807
g8
I64
sg9
I59
sg10
g80
sg12
I0
sg13
I0
sbag2
(g3
g4
Ntp808
Rp809
(dp810
g8
I58
sg9
I52
sg10
g80
sg12
I0
sg13
I0
sbaa(lp811
g2
(g3
g4
Ntp812
Rp813
(dp814
g8
I70
sg9
I73
sg10
g80
sg12
I0
sg13
I0
sbag2
(g3
g4
Ntp815
Rp816
(dp817
g8
I66
sg9
I64
sg10
g80
sg12
I0
sg13
I0
sbag2
(g3
g4
Ntp818
Rp819
(dp820
g8
I64
sg9
I65
sg10
g80
sg12
I0
sg13
I0
sbag2
(g3
g4
Ntp821
Rp822
(dp823
g8
I68
sg9
I61
sg10
g80
sg12
I0
sg13
I0
sbag2
(g3
g4
Ntp824
Rp825
(dp826
g8
I51
sg9
I58
sg10
g80
sg12
I0
sg13
I0
sbag2
(g3
g4
Ntp827
Rp828
(dp829
g8
I61
sg9
I63
sg10
g80
sg12
I0
sg13
I0
sbaa.