(imidi_read
MidiReader
p0
(dp1
S'input'
p2
S'Digital Piano'
p3
sS'messages'
p4
(lp5
ccopy_reg
_reconstructor
p6
(cmido.messages.messages
Message
p7
c__builtin__
object
p8
Ntp9
Rp10
(dp11
S'note'
p12
I60
sS'velocity'
p13
I87
sS'type'
p14
S'note_on'
p15
sS'channel'
p16
I0
sS'time'
p17
I0
sbag6
(g7
g8
Ntp18
Rp19
(dp20
g12
I65
sg13
I87
sg14
g15
sg16
I0
sg17
I0
sbag6
(g7
g8
Ntp21
Rp22
(dp23
g12
I58
sg13
I83
sg14
g15
sg16
I0
sg17
I0
sbag6
(g7
g8
Ntp24
Rp25
(dp26
g12
I67
sg13
I93
sg14
g15
sg16
I0
sg17
I0
sbag6
(g7
g8
Ntp27
Rp28
(dp29
g12
I65
sg13
I0
sg14
g15
sg16
I0
sg17
I0
sbag6
(g7
g8
Ntp30
Rp31
(dp32
g12
I60
sg13
I0
sg14
g15
sg16
I0
sg17
I0
sbag6
(g7
g8
Ntp33
Rp34
(dp35
g12
I67
sg13
I0
sg14
g15
sg16
I0
sg17
I0
sbag6
(g7
g8
Ntp36
Rp37
(dp38
g12
I58
sg13
I0
sg14
g15
sg16
I0
sg17
I0
sbag6
(g7
g8
Ntp39
Rp40
(dp41
g12
I57
sg13
I72
sg14
g15
sg16
I0
sg17
I0
sbag6
(g7
g8
Ntp42
Rp43
(dp44
g12
I69
sg13
I93
sg14
g15
sg16
I0
sg17
I0
sbag6
(g7
g8
Ntp45
Rp46
(dp47
g12
I70
sg13
I87
sg14
g15
sg16
I0
sg17
I0
sbag6
(g7
g8
Ntp48
Rp49
(dp50
g12
I58
sg13
I83
sg14
g15
sg16
I0
sg17
I0
sbag6
(g7
g8
Ntp51
Rp52
(dp53
g12
I57
sg13
I0
sg14
g15
sg16
I0
sg17
I0
sbag6
(g7
g8
Ntp54
Rp55
(dp56
g12
I69
sg13
I0
sg14
g15
sg16
I0
sg17
I0
sbag6
(g7
g8
Ntp57
Rp58
(dp59
g12
I70
sg13
I0
sg14
g15
sg16
I0
sg17
I0
sbag6
(g7
g8
Ntp60
Rp61
(dp62
g12
I71
sg13
I95
sg14
g15
sg16
I0
sg17
I0
sbag6
(g7
g8
Ntp63
Rp64
(dp65
g12
I58
sg13
I0
sg14
g15
sg16
I0
sg17
I0
sbag6
(g7
g8
Ntp66
Rp67
(dp68
g12
I59
sg13
I77
sg14
g15
sg16
I0
sg17
I0
sbag6
(g7
g8
Ntp69
Rp70
(dp71
g12
I63
sg13
I92
sg14
g15
sg16
I0
sg17
I0
sbag6
(g7
g8
Ntp72
Rp73
(dp74
g12
I75
sg13
I97
sg14
g15
sg16
I0
sg17
I0
sbag6
(g7
g8
Ntp75
Rp76
(dp77
g12
I71
sg13
I0
sg14
g15
sg16
I0
sg17
I0
sbag6
(g7
g8
Ntp78
Rp79
(dp80
g12
I59
sg13
I0
sg14
g15
sg16
I0
sg17
I0
sbag6
(g7
g8
Ntp81
Rp82
(dp83
g12
I76
sg13
I92
sg14
g15
sg16
I0
sg17
I0
sbag6
(g7
g8
Ntp84
Rp85
(dp86
g12
I63
sg13
I0
sg14
g15
sg16
I0
sg17
I0
sbag6
(g7
g8
Ntp87
Rp88
(dp89
g12
I64
sg13
I80
sg14
g15
sg16
I0
sg17
I0
sbag6
(g7
g8
Ntp90
Rp91
(dp92
g12
I75
sg13
I0
sg14
g15
sg16
I0
sg17
I0
sbag6
(g7
g8
Ntp93
Rp94
(dp95
g12
I76
sg13
I0
sg14
g15
sg16
I0
sg17
I0
sbag6
(g7
g8
Ntp96
Rp97
(dp98
g12
I64
sg13
I0
sg14
g15
sg16
I0
sg17
I0
sbag6
(g7
g8
Ntp99
Rp100
(dp101
g12
I67
sg13
I92
sg14
g15
sg16
I0
sg17
I0
sbag6
(g7
g8
Ntp102
Rp103
(dp104
g12
I62
sg13
I81
sg14
g15
sg16
I0
sg17
I0
sbag6
(g7
g8
Ntp105
Rp106
(dp107
g12
I62
sg13
I0
sg14
g15
sg16
I0
sg17
I0
sbag6
(g7
g8
Ntp108
Rp109
(dp110
g12
I67
sg13
I0
sg14
g15
sg16
I0
sg17
I0
sbag6
(g7
g8
Ntp111
Rp112
(dp113
g12
I70
sg13
I94
sg14
g15
sg16
I0
sg17
I0
sbag6
(g7
g8
Ntp114
Rp115
(dp116
g12
I65
sg13
I73
sg14
g15
sg16
I0
sg17
I0
sbag6
(g7
g8
Ntp117
Rp118
(dp119
g12
I65
sg13
I0
sg14
g15
sg16
I0
sg17
I0
sbag6
(g7
g8
Ntp120
Rp121
(dp122
g12
I70
sg13
I0
sg14
g15
sg16
I0
sg17
I0
sbag6
(g7
g8
Ntp123
Rp124
(dp125
g12
I68
sg13
I80
sg14
g15
sg16
I0
sg17
I0
sbag6
(g7
g8
Ntp126
Rp127
(dp128
g12
I72
sg13
I89
sg14
g15
sg16
I0
sg17
I0
sbag6
(g7
g8
Ntp129
Rp130
(dp131
g12
I68
sg13
I0
sg14
g15
sg16
I0
sg17
I0
sbag6
(g7
g8
Ntp132
Rp133
(dp134
g12
I72
sg13
I0
sg14
g15
sg16
I0
sg17
I0
sbag6
(g7
g8
Ntp135
Rp136
(dp137
g12
I74
sg13
I89
sg14
g15
sg16
I0
sg17
I0
sbag6
(g7
g8
Ntp138
Rp139
(dp140
g12
I69
sg13
I78
sg14
g15
sg16
I0
sg17
I0
sbag6
(g7
g8
Ntp141
Rp142
(dp143
g12
I74
sg13
I0
sg14
g15
sg16
I0
sg17
I0
sbag6
(g7
g8
Ntp144
Rp145
(dp146
g12
I69
sg13
I0
sg14
g15
sg16
I0
sg17
I0
sbag6
(g7
g8
Ntp147
Rp148
(dp149
g12
I72
sg13
I90
sg14
g15
sg16
I0
sg17
I0
sbag6
(g7
g8
Ntp150
Rp151
(dp152
g12
I77
sg13
I90
sg14
g15
sg16
I0
sg17
I0
sbag6
(g7
g8
Ntp153
Rp154
(dp155
g12
I72
sg13
I0
sg14
g15
sg16
I0
sg17
I0
sbag6
(g7
g8
Ntp156
Rp157
(dp158
g12
I77
sg13
I0
sg14
g15
sg16
I0
sg17
I0
sbag6
(g7
g8
Ntp159
Rp160
(dp161
g12
I75
sg13
I84
sg14
g15
sg16
I0
sg17
I0
sbag6
(g7
g8
Ntp162
Rp163
(dp164
g12
I70
sg13
I75
sg14
g15
sg16
I0
sg17
I0
sbag6
(g7
g8
Ntp165
Rp166
(dp167
g12
I70
sg13
I0
sg14
g15
sg16
I0
sg17
I0
sbag6
(g7
g8
Ntp168
Rp169
(dp170
g12
I75
sg13
I0
sg14
g15
sg16
I0
sg17
I0
sbag6
(g7
g8
Ntp171
Rp172
(dp173
g12
I74
sg13
I93
sg14
g15
sg16
I0
sg17
I0
sbag6
(g7
g8
Ntp174
Rp175
(dp176
g12
I79
sg13
I84
sg14
g15
sg16
I0
sg17
I0
sbag6
(g7
g8
Ntp177
Rp178
(dp179
g12
I74
sg13
I0
sg14
g15
sg16
I0
sg17
I0
sbag6
(g7
g8
Ntp180
Rp181
(dp182
g12
I79
sg13
I0
sg14
g15
sg16
I0
sg17
I0
sbag6
(g7
g8
Ntp183
Rp184
(dp185
g12
I75
sg13
I87
sg14
g15
sg16
I0
sg17
I0
sbag6
(g7
g8
Ntp186
Rp187
(dp188
g12
I79
sg13
I92
sg14
g15
sg16
I0
sg17
I0
sbag6
(g7
g8
Ntp189
Rp190
(dp191
g12
I75
sg13
I0
sg14
g15
sg16
I0
sg17
I0
sbag6
(g7
g8
Ntp192
Rp193
(dp194
g12
I79
sg13
I0
sg14
g15
sg16
I0
sg17
I0
sbag6
(g7
g8
Ntp195
Rp196
(dp197
g12
I79
sg13
I82
sg14
g15
sg16
I0
sg17
I0
sbag6
(g7
g8
Ntp198
Rp199
(dp200
g12
I74
sg13
I92
sg14
g15
sg16
I0
sg17
I0
sbag6
(g7
g8
Ntp201
Rp202
(dp203
g12
I79
sg13
I0
sg14
g15
sg16
I0
sg17
I0
sbag6
(g7
g8
Ntp204
Rp205
(dp206
g12
I74
sg13
I0
sg14
g15
sg16
I0
sg17
I0
sbag6
(g7
g8
Ntp207
Rp208
(dp209
g12
I79
sg13
I87
sg14
g15
sg16
I0
sg17
I0
sbag6
(g7
g8
Ntp210
Rp211
(dp212
g12
I72
sg13
I93
sg14
g15
sg16
I0
sg17
I0
sbag6
(g7
g8
Ntp213
Rp214
(dp215
g12
I79
sg13
I0
sg14
g15
sg16
I0
sg17
I0
sbag6
(g7
g8
Ntp216
Rp217
(dp218
g12
I72
sg13
I0
sg14
g15
sg16
I0
sg17
I0
sbag6
(g7
g8
Ntp219
Rp220
(dp221
g12
I74
sg13
I89
sg14
g15
sg16
I0
sg17
I0
sbag6
(g7
g8
Ntp222
Rp223
(dp224
g12
I70
sg13
I99
sg14
g15
sg16
I0
sg17
I0
sbag6
(g7
g8
Ntp225
Rp226
(dp227
g12
I69
sg13
I79
sg14
g15
sg16
I0
sg17
I0
sbag6
(g7
g8
Ntp228
Rp229
(dp230
g12
I70
sg13
I0
sg14
g15
sg16
I0
sg17
I0
sbag6
(g7
g8
Ntp231
Rp232
(dp233
g12
I69
sg13
I0
sg14
g15
sg16
I0
sg17
I0
sbag6
(g7
g8
Ntp234
Rp235
(dp236
g12
I74
sg13
I0
sg14
g15
sg16
I0
sg17
I0
sbag6
(g7
g8
Ntp237
Rp238
(dp239
g12
I67
sg13
I93
sg14
g15
sg16
I0
sg17
I0
sbag6
(g7
g8
Ntp240
Rp241
(dp242
g12
I72
sg13
I89
sg14
g15
sg16
I0
sg17
I0
sbag6
(g7
g8
Ntp243
Rp244
(dp245
g12
I67
sg13
I0
sg14
g15
sg16
I0
sg17
I0
sbag6
(g7
g8
Ntp246
Rp247
(dp248
g12
I70
sg13
I89
sg14
g15
sg16
I0
sg17
I0
sbag6
(g7
g8
Ntp249
Rp250
(dp251
g12
I65
sg13
I79
sg14
g15
sg16
I0
sg17
I0
sbag6
(g7
g8
Ntp252
Rp253
(dp254
g12
I72
sg13
I0
sg14
g15
sg16
I0
sg17
I0
sbag6
(g7
g8
Ntp255
Rp256
(dp257
g12
I70
sg13
I0
sg14
g15
sg16
I0
sg17
I0
sbag6
(g7
g8
Ntp258
Rp259
(dp260
g12
I65
sg13
I0
sg14
g15
sg16
I0
sg17
I0
sbag6
(g7
g8
Ntp261
Rp262
(dp263
g12
I63
sg13
I94
sg14
g15
sg16
I0
sg17
I0
sbag6
(g7
g8
Ntp264
Rp265
(dp266
g12
I67
sg13
I92
sg14
g15
sg16
I0
sg17
I0
sbag6
(g7
g8
Ntp267
Rp268
(dp269
g12
I63
sg13
I0
sg14
g15
sg16
I0
sg17
I0
sbag6
(g7
g8
Ntp270
Rp271
(dp272
g12
I67
sg13
I0
sg14
g15
sg16
I0
sg17
I0
sbag6
(g7
g8
Ntp273
Rp274
(dp275
g12
I65
sg13
I80
sg14
g15
sg16
I0
sg17
I0
sbag6
(g7
g8
Ntp276
Rp277
(dp278
g12
I62
sg13
I79
sg14
g15
sg16
I0
sg17
I0
sbag6
(g7
g8
Ntp279
Rp280
(dp281
g12
I62
sg13
I0
sg14
g15
sg16
I0
sg17
I0
sbag6
(g7
g8
Ntp282
Rp283
(dp284
g12
I65
sg13
I0
sg14
g15
sg16
I0
sg17
I0
sbag6
(g7
g8
Ntp285
Rp286
(dp287
g12
I63
sg13
I91
sg14
g15
sg16
I0
sg17
I0
sbag6
(g7
g8
Ntp288
Rp289
(dp290
g12
I60
sg13
I72
sg14
g15
sg16
I0
sg17
I0
sbag6
(g7
g8
Ntp291
Rp292
(dp293
g12
I63
sg13
I0
sg14
g15
sg16
I0
sg17
I0
sbag6
(g7
g8
Ntp294
Rp295
(dp296
g12
I60
sg13
I0
sg14
g15
sg16
I0
sg17
I0
sbag6
(g7
g8
Ntp297
Rp298
(dp299
g12
I67
sg13
I80
sg14
g15
sg16
I0
sg17
I0
sbag6
(g7
g8
Ntp300
Rp301
(dp302
g12
I63
sg13
I75
sg14
g15
sg16
I0
sg17
I0
sbag6
(g7
g8
Ntp303
Rp304
(dp305
g12
I63
sg13
I0
sg14
g15
sg16
I0
sg17
I0
sbag6
(g7
g8
Ntp306
Rp307
(dp308
g12
I67
sg13
I0
sg14
g15
sg16
I0
sg17
I0
sbag6
(g7
g8
Ntp309
Rp310
(dp311
g12
I70
sg13
I82
sg14
g15
sg16
I0
sg17
I0
sbag6
(g7
g8
Ntp312
Rp313
(dp314
g12
I65
sg13
I78
sg14
g15
sg16
I0
sg17
I0
sbag6
(g7
g8
Ntp315
Rp316
(dp317
g12
I65
sg13
I0
sg14
g15
sg16
I0
sg17
I0
sbag6
(g7
g8
Ntp318
Rp319
(dp320
g12
I70
sg13
I0
sg14
g15
sg16
I0
sg17
I0
sbag6
(g7
g8
Ntp321
Rp322
(dp323
g12
I72
sg13
I78
sg14
g15
sg16
I0
sg17
I0
sbag6
(g7
g8
Ntp324
Rp325
(dp326
g12
I67
sg13
I80
sg14
g15
sg16
I0
sg17
I0
sbag6
(g7
g8
Ntp327
Rp328
(dp329
g12
I67
sg13
I0
sg14
g15
sg16
I0
sg17
I0
sbag6
(g7
g8
Ntp330
Rp331
(dp332
g12
I72
sg13
I0
sg14
g15
sg16
I0
sg17
I0
sbag6
(g7
g8
Ntp333
Rp334
(dp335
g12
I74
sg13
I78
sg14
g15
sg16
I0
sg17
I0
sbag6
(g7
g8
Ntp336
Rp337
(dp338
g12
I70
sg13
I71
sg14
g15
sg16
I0
sg17
I0
sbag6
(g7
g8
Ntp339
Rp340
(dp341
g12
I70
sg13
I0
sg14
g15
sg16
I0
sg17
I0
sbag6
(g7
g8
Ntp342
Rp343
(dp344
g12
I74
sg13
I0
sg14
g15
sg16
I0
sg17
I0
sbag6
(g7
g8
Ntp345
Rp346
(dp347
g12
I77
sg13
I89
sg14
g15
sg16
I0
sg17
I0
sbag6
(g7
g8
Ntp348
Rp349
(dp350
g12
I72
sg13
I76
sg14
g15
sg16
I0
sg17
I0
sbag6
(g7
g8
Ntp351
Rp352
(dp353
g12
I72
sg13
I0
sg14
g15
sg16
I0
sg17
I0
sbag6
(g7
g8
Ntp354
Rp355
(dp356
g12
I77
sg13
I0
sg14
g15
sg16
I0
sg17
I0
sbag6
(g7
g8
Ntp357
Rp358
(dp359
g12
I79
sg13
I86
sg14
g15
sg16
I0
sg17
I0
sbag6
(g7
g8
Ntp360
Rp361
(dp362
g12
I74
sg13
I80
sg14
g15
sg16
I0
sg17
I0
sbag6
(g7
g8
Ntp363
Rp364
(dp365
g12
I79
sg13
I0
sg14
g15
sg16
I0
sg17
I0
sbag6
(g7
g8
Ntp366
Rp367
(dp368
g12
I77
sg13
I87
sg14
g15
sg16
I0
sg17
I0
sbag6
(g7
g8
Ntp369
Rp370
(dp371
g12
I74
sg13
I0
sg14
g15
sg16
I0
sg17
I0
sbag6
(g7
g8
Ntp372
Rp373
(dp374
g12
I81
sg13
I90
sg14
g15
sg16
I0
sg17
I0
sbag6
(g7
g8
Ntp375
Rp376
(dp377
g12
I77
sg13
I0
sg14
g15
sg16
I0
sg17
I0
sbag6
(g7
g8
Ntp378
Rp379
(dp380
g12
I81
sg13
I0
sg14
g15
sg16
I0
sg17
I0
sbag6
(g7
g8
Ntp381
Rp382
(dp383
g12
I82
sg13
I86
sg14
g15
sg16
I0
sg17
I0
sbag6
(g7
g8
Ntp384
Rp385
(dp386
g12
I79
sg13
I83
sg14
g15
sg16
I0
sg17
I0
sbag6
(g7
g8
Ntp387
Rp388
(dp389
g12
I82
sg13
I0
sg14
g15
sg16
I0
sg17
I0
sbag6
(g7
g8
Ntp390
Rp391
(dp392
g12
I79
sg13
I0
sg14
g15
sg16
I0
sg17
I0
sbag6
(g7
g8
Ntp393
Rp394
(dp395
g12
I84
sg13
I89
sg14
g15
sg16
I0
sg17
I0
sbag6
(g7
g8
Ntp396
Rp397
(dp398
g12
I81
sg13
I86
sg14
g15
sg16
I0
sg17
I0
sbag6
(g7
g8
Ntp399
Rp400
(dp401
g12
I84
sg13
I0
sg14
g15
sg16
I0
sg17
I0
sbag6
(g7
g8
Ntp402
Rp403
(dp404
g12
I81
sg13
I0
sg14
g15
sg16
I0
sg17
I0
sbag6
(g7
g8
Ntp405
Rp406
(dp407
g12
I86
sg13
I95
sg14
g15
sg16
I0
sg17
I0
sbag6
(g7
g8
Ntp408
Rp409
(dp410
g12
I82
sg13
I97
sg14
g15
sg16
I0
sg17
I0
sbag6
(g7
g8
Ntp411
Rp412
(dp413
g12
I82
sg13
I0
sg14
g15
sg16
I0
sg17
I0
sbag6
(g7
g8
Ntp414
Rp415
(dp416
g12
I86
sg13
I0
sg14
g15
sg16
I0
sg17
I0
sbag6
(g7
g8
Ntp417
Rp418
(dp419
g12
I84
sg13
I87
sg14
g15
sg16
I0
sg17
I0
sbag6
(g7
g8
Ntp420
Rp421
(dp422
g12
I81
sg13
I86
sg14
g15
sg16
I0
sg17
I0
sbag6
(g7
g8
Ntp423
Rp424
(dp425
g12
I81
sg13
I0
sg14
g15
sg16
I0
sg17
I0
sbag6
(g7
g8
Ntp426
Rp427
(dp428
g12
I84
sg13
I0
sg14
g15
sg16
I0
sg17
I0
sbag6
(g7
g8
Ntp429
Rp430
(dp431
g12
I82
sg13
I86
sg14
g15
sg16
I0
sg17
I0
sbag6
(g7
g8
Ntp432
Rp433
(dp434
g12
I79
sg13
I74
sg14
g15
sg16
I0
sg17
I0
sbag6
(g7
g8
Ntp435
Rp436
(dp437
g12
I79
sg13
I0
sg14
g15
sg16
I0
sg17
I0
sbag6
(g7
g8
Ntp438
Rp439
(dp440
g12
I82
sg13
I0
sg14
g15
sg16
I0
sg17
I0
sbag6
(g7
g8
Ntp441
Rp442
(dp443
g12
I81
sg13
I92
sg14
g15
sg16
I0
sg17
I0
sbag6
(g7
g8
Ntp444
Rp445
(dp446
g12
I77
sg13
I89
sg14
g15
sg16
I0
sg17
I0
sbag6
(g7
g8
Ntp447
Rp448
(dp449
g12
I77
sg13
I0
sg14
g15
sg16
I0
sg17
I0
sbag6
(g7
g8
Ntp450
Rp451
(dp452
g12
I81
sg13
I0
sg14
g15
sg16
I0
sg17
I0
sbag6
(g7
g8
Ntp453
Rp454
(dp455
g12
I79
sg13
I89
sg14
g15
sg16
I0
sg17
I0
sbag6
(g7
g8
Ntp456
Rp457
(dp458
g12
I75
sg13
I94
sg14
g15
sg16
I0
sg17
I0
sbag6
(g7
g8
Ntp459
Rp460
(dp461
g12
I75
sg13
I0
sg14
g15
sg16
I0
sg17
I0
sbag6
(g7
g8
Ntp462
Rp463
(dp464
g12
I79
sg13
I0
sg14
g15
sg16
I0
sg17
I0
sbag6
(g7
g8
Ntp465
Rp466
(dp467
g12
I77
sg13
I84
sg14
g15
sg16
I0
sg17
I0
sbag6
(g7
g8
Ntp468
Rp469
(dp470
g12
I72
sg13
I74
sg14
g15
sg16
I0
sg17
I0
sbag6
(g7
g8
Ntp471
Rp472
(dp473
g12
I77
sg13
I0
sg14
g15
sg16
I0
sg17
I0
sbag6
(g7
g8
Ntp474
Rp475
(dp476
g12
I72
sg13
I0
sg14
g15
sg16
I0
sg17
I0
sbag6
(g7
g8
Ntp477
Rp478
(dp479
g12
I75
sg13
I95
sg14
g15
sg16
I0
sg17
I0
sbag6
(g7
g8
Ntp480
Rp481
(dp482
g12
I74
sg13
I75
sg14
g15
sg16
I0
sg17
I0
sbag6
(g7
g8
Ntp483
Rp484
(dp485
g12
I74
sg13
I0
sg14
g15
sg16
I0
sg17
I0
sbag6
(g7
g8
Ntp486
Rp487
(dp488
g12
I75
sg13
I0
sg14
g15
sg16
I0
sg17
I0
sbag6
(g7
g8
Ntp489
Rp490
(dp491
g12
I75
sg13
I95
sg14
g15
sg16
I0
sg17
I0
sbag6
(g7
g8
Ntp492
Rp493
(dp494
g12
I79
sg13
I92
sg14
g15
sg16
I0
sg17
I0
sbag6
(g7
g8
Ntp495
Rp496
(dp497
g12
I79
sg13
I0
sg14
g15
sg16
I0
sg17
I0
sbag6
(g7
g8
Ntp498
Rp499
(dp500
g12
I75
sg13
I0
sg14
g15
sg16
I0
sg17
I0
sbag6
(g7
g8
Ntp501
Rp502
(dp503
g12
I75
sg13
I92
sg14
g15
sg16
I0
sg17
I0
sbag6
(g7
g8
Ntp504
Rp505
(dp506
g12
I72
sg13
I76
sg14
g15
sg16
I0
sg17
I0
sbag6
(g7
g8
Ntp507
Rp508
(dp509
g12
I75
sg13
I0
sg14
g15
sg16
I0
sg17
I0
sbag6
(g7
g8
Ntp510
Rp511
(dp512
g12
I72
sg13
I0
sg14
g15
sg16
I0
sg17
I0
sbag6
(g7
g8
Ntp513
Rp514
(dp515
g12
I72
sg13
I99
sg14
g15
sg16
I0
sg17
I0
sbag6
(g7
g8
Ntp516
Rp517
(dp518
g12
I67
sg13
I80
sg14
g15
sg16
I0
sg17
I0
sbag6
(g7
g8
Ntp519
Rp520
(dp521
g12
I72
sg13
I0
sg14
g15
sg16
I0
sg17
I0
sbag6
(g7
g8
Ntp522
Rp523
(dp524
g12
I67
sg13
I0
sg14
g15
sg16
I0
sg17
I0
sbag6
(g7
g8
Ntp525
Rp526
(dp527
g12
I67
sg13
I86
sg14
g15
sg16
I0
sg17
I0
sbag6
(g7
g8
Ntp528
Rp529
(dp530
g12
I63
sg13
I79
sg14
g15
sg16
I0
sg17
I0
sbag6
(g7
g8
Ntp531
Rp532
(dp533
g12
I63
sg13
I0
sg14
g15
sg16
I0
sg17
I0
sbag6
(g7
g8
Ntp534
Rp535
(dp536
g12
I67
sg13
I0
sg14
g15
sg16
I0
sg17
I0
sbag6
(g7
g8
Ntp537
Rp538
(dp539
g12
I63
sg13
I81
sg14
g15
sg16
I0
sg17
I0
sbag6
(g7
g8
Ntp540
Rp541
(dp542
g12
I60
sg13
I80
sg14
g15
sg16
I0
sg17
I0
sbag6
(g7
g8
Ntp543
Rp544
(dp545
g12
I63
sg13
I0
sg14
g15
sg16
I0
sg17
I0
sbag6
(g7
g8
Ntp546
Rp547
(dp548
g12
I60
sg13
I0
sg14
g15
sg16
I0
sg17
I0
sbag6
(g7
g8
Ntp549
Rp550
(dp551
g12
I63
sg13
I85
sg14
g15
sg16
I0
sg17
I0
sbag6
(g7
g8
Ntp552
Rp553
(dp554
g12
I67
sg13
I80
sg14
g15
sg16
I0
sg17
I0
sbag6
(g7
g8
Ntp555
Rp556
(dp557
g12
I63
sg13
I0
sg14
g15
sg16
I0
sg17
I0
sbag6
(g7
g8
Ntp558
Rp559
(dp560
g12
I67
sg13
I0
sg14
g15
sg16
I0
sg17
I0
sbag6
(g7
g8
Ntp561
Rp562
(dp563
g12
I67
sg13
I68
sg14
g15
sg16
I0
sg17
I0
sbag6
(g7
g8
Ntp564
Rp565
(dp566
g12
I72
sg13
I63
sg14
g15
sg16
I0
sg17
I0
sbag6
(g7
g8
Ntp567
Rp568
(dp569
g12
I71
sg13
I66
sg14
g15
sg16
I0
sg17
I0
sbag6
(g7
g8
Ntp570
Rp571
(dp572
g12
I71
sg13
I0
sg14
g15
sg16
I0
sg17
I0
sbag6
(g7
g8
Ntp573
Rp574
(dp575
g12
I67
sg13
I0
sg14
g15
sg16
I0
sg17
I0
sbag6
(g7
g8
Ntp576
Rp577
(dp578
g12
I72
sg13
I0
sg14
g15
sg16
I0
sg17
I0
sbag6
(g7
g8
Ntp579
Rp580
(dp581
g12
I72
sg13
I80
sg14
g15
sg16
I0
sg17
I0
sbag6
(g7
g8
Ntp582
Rp583
(dp584
g12
I75
sg13
I86
sg14
g15
sg16
I0
sg17
I0
sbag6
(g7
g8
Ntp585
Rp586
(dp587
g12
I79
sg13
I80
sg14
g15
sg16
I0
sg17
I0
sbag6
(g7
g8
Ntp588
Rp589
(dp590
g12
I75
sg13
I0
sg14
g15
sg16
I0
sg17
I0
sbag6
(g7
g8
Ntp591
Rp592
(dp593
g12
I72
sg13
I0
sg14
g15
sg16
I0
sg17
I0
sbag6
(g7
g8
Ntp594
Rp595
(dp596
g12
I79
sg13
I0
sg14
g15
sg16
I0
sg17
I0
sbag6
(g7
g8
Ntp597
Rp598
(dp599
g12
I79
sg13
I96
sg14
g15
sg16
I0
sg17
I0
sbag6
(g7
g8
Ntp600
Rp601
(dp602
g12
I84
sg13
I90
sg14
g15
sg16
I0
sg17
I0
sbag6
(g7
g8
Ntp603
Rp604
(dp605
g12
I79
sg13
I0
sg14
g15
sg16
I0
sg17
I0
sbag6
(g7
g8
Ntp606
Rp607
(dp608
g12
I84
sg13
I0
sg14
g15
sg16
I0
sg17
I0
sbag6
(g7
g8
Ntp609
Rp610
(dp611
g12
I82
sg13
I89
sg14
g15
sg16
I0
sg17
I0
sbag6
(g7
g8
Ntp612
Rp613
(dp614
g12
I77
sg13
I76
sg14
g15
sg16
I0
sg17
I0
sbag6
(g7
g8
Ntp615
Rp616
(dp617
g12
I82
sg13
I0
sg14
g15
sg16
I0
sg17
I0
sbag6
(g7
g8
Ntp618
Rp619
(dp620
g12
I77
sg13
I0
sg14
g15
sg16
I0
sg17
I0
sbag6
(g7
g8
Ntp621
Rp622
(dp623
g12
I82
sg13
I92
sg14
g15
sg16
I0
sg17
I0
sbag6
(g7
g8
Ntp624
Rp625
(dp626
g12
I87
sg13
I95
sg14
g15
sg16
I0
sg17
I0
sbag6
(g7
g8
Ntp627
Rp628
(dp629
g12
I82
sg13
I0
sg14
g15
sg16
I0
sg17
I0
sbag6
(g7
g8
Ntp630
Rp631
(dp632
g12
I87
sg13
I0
sg14
g15
sg16
I0
sg17
I0
sbag6
(g7
g8
Ntp633
Rp634
(dp635
g12
I86
sg13
I93
sg14
g15
sg16
I0
sg17
I0
sbag6
(g7
g8
Ntp636
Rp637
(dp638
g12
I79
sg13
I82
sg14
g15
sg16
I0
sg17
I0
sbag6
(g7
g8
Ntp639
Rp640
(dp641
g12
I86
sg13
I0
sg14
g15
sg16
I0
sg17
I0
sbag6
(g7
g8
Ntp642
Rp643
(dp644
g12
I79
sg13
I0
sg14
g15
sg16
I0
sg17
I0
sbag6
(g7
g8
Ntp645
Rp646
(dp647
g12
I77
sg13
I90
sg14
g15
sg16
I0
sg17
I0
sbag6
(g7
g8
Ntp648
Rp649
(dp650
g12
I84
sg13
I93
sg14
g15
sg16
I0
sg17
I0
sbag6
(g7
g8
Ntp651
Rp652
(dp653
g12
I84
sg13
I0
sg14
g15
sg16
I0
sg17
I0
sbag6
(g7
g8
Ntp654
Rp655
(dp656
g12
I77
sg13
I0
sg14
g15
sg16
I0
sg17
I0
sbag6
(g7
g8
Ntp657
Rp658
(dp659
g12
I77
sg13
I79
sg14
g15
sg16
I0
sg17
I0
sbag6
(g7
g8
Ntp660
Rp661
(dp662
g12
I82
sg13
I89
sg14
g15
sg16
I0
sg17
I0
sbag6
(g7
g8
Ntp663
Rp664
(dp665
g12
I82
sg13
I0
sg14
g15
sg16
I0
sg17
I0
sbag6
(g7
g8
Ntp666
Rp667
(dp668
g12
I77
sg13
I0
sg14
g15
sg16
I0
sg17
I0
sbag6
(g7
g8
Ntp669
Rp670
(dp671
g12
I75
sg13
I86
sg14
g15
sg16
I0
sg17
I0
sbag6
(g7
g8
Ntp672
Rp673
(dp674
g12
I80
sg13
I84
sg14
g15
sg16
I0
sg17
I0
sbag6
(g7
g8
Ntp675
Rp676
(dp677
g12
I75
sg13
I0
sg14
g15
sg16
I0
sg17
I0
sbag6
(g7
g8
Ntp678
Rp679
(dp680
g12
I80
sg13
I0
sg14
g15
sg16
I0
sg17
I0
sbag6
(g7
g8
Ntp681
Rp682
(dp683
g12
I74
sg13
I82
sg14
g15
sg16
I0
sg17
I0
sbag6
(g7
g8
Ntp684
Rp685
(dp686
g12
I79
sg13
I86
sg14
g15
sg16
I0
sg17
I0
sbag6
(g7
g8
Ntp687
Rp688
(dp689
g12
I79
sg13
I0
sg14
g15
sg16
I0
sg17
I0
sbag6
(g7
g8
Ntp690
Rp691
(dp692
g12
I74
sg13
I0
sg14
g15
sg16
I0
sg17
I0
sbag6
(g7
g8
Ntp693
Rp694
(dp695
g12
I77
sg13
I86
sg14
g15
sg16
I0
sg17
I0
sbag6
(g7
g8
Ntp696
Rp697
(dp698
g12
I72
sg13
I83
sg14
g15
sg16
I0
sg17
I0
sbag6
(g7
g8
Ntp699
Rp700
(dp701
g12
I72
sg13
I0
sg14
g15
sg16
I0
sg17
I0
sbag6
(g7
g8
Ntp702
Rp703
(dp704
g12
I77
sg13
I0
sg14
g15
sg16
I0
sg17
I0
sbag6
(g7
g8
Ntp705
Rp706
(dp707
g12
I75
sg13
I94
sg14
g15
sg16
I0
sg17
I0
sbag6
(g7
g8
Ntp708
Rp709
(dp710
g12
I72
sg13
I76
sg14
g15
sg16
I0
sg17
I0
sbag6
(g7
g8
Ntp711
Rp712
(dp713
g12
I75
sg13
I0
sg14
g15
sg16
I0
sg17
I0
sbag6
(g7
g8
Ntp714
Rp715
(dp716
g12
I72
sg13
I0
sg14
g15
sg16
I0
sg17
I0
sbag6
(g7
g8
Ntp717
Rp718
(dp719
g12
I74
sg13
I89
sg14
g15
sg16
I0
sg17
I0
sbag6
(g7
g8
Ntp720
Rp721
(dp722
g12
I72
sg13
I82
sg14
g15
sg16
I0
sg17
I0
sbag6
(g7
g8
Ntp723
Rp724
(dp725
g12
I74
sg13
I0
sg14
g15
sg16
I0
sg17
I0
sbag6
(g7
g8
Ntp726
Rp727
(dp728
g12
I72
sg13
I0
sg14
g15
sg16
I0
sg17
I0
sbag6
(g7
g8
Ntp729
Rp730
(dp731
g12
I74
sg13
I82
sg14
g15
sg16
I0
sg17
I0
sbag6
(g7
g8
Ntp732
Rp733
(dp734
g12
I72
sg13
I79
sg14
g15
sg16
I0
sg17
I0
sbag6
(g7
g8
Ntp735
Rp736
(dp737
g12
I72
sg13
I0
sg14
g15
sg16
I0
sg17
I0
sbag6
(g7
g8
Ntp738
Rp739
(dp740
g12
I72
sg13
I47
sg14
g15
sg16
I0
sg17
I0
sbag6
(g7
g8
Ntp741
Rp742
(dp743
g12
I72
sg13
I0
sg14
g15
sg16
I0
sg17
I0
sbag6
(g7
g8
Ntp744
Rp745
(dp746
g12
I74
sg13
I0
sg14
g15
sg16
I0
sg17
I0
sbag6
(g7
g8
Ntp747
Rp748
(dp749
g12
I72
sg13
I75
sg14
g15
sg16
I0
sg17
I0
sbag6
(g7
g8
Ntp750
Rp751
(dp752
g12
I74
sg13
I58
sg14
g15
sg16
I0
sg17
I0
sbag6
(g7
g8
Ntp753
Rp754
(dp755
g12
I72
sg13
I0
sg14
g15
sg16
I0
sg17
I0
sbag6
(g7
g8
Ntp756
Rp757
(dp758
g12
I74
sg13
I0
sg14
g15
sg16
I0
sg17
I0
sbag6
(g7
g8
Ntp759
Rp760
(dp761
g12
I74
sg13
I53
sg14
g15
sg16
I0
sg17
I0
sbag6
(g7
g8
Ntp762
Rp763
(dp764
g12
I72
sg13
I74
sg14
g15
sg16
I0
sg17
I0
sbag6
(g7
g8
Ntp765
Rp766
(dp767
g12
I72
sg13
I0
sg14
g15
sg16
I0
sg17
I0
sbag6
(g7
g8
Ntp768
Rp769
(dp770
g12
I74
sg13
I0
sg14
g15
sg16
I0
sg17
I0
sbag6
(g7
g8
Ntp771
Rp772
(dp773
g12
I72
sg13
I70
sg14
g15
sg16
I0
sg17
I0
sbag6
(g7
g8
Ntp774
Rp775
(dp776
g12
I74
sg13
I64
sg14
g15
sg16
I0
sg17
I0
sbag6
(g7
g8
Ntp777
Rp778
(dp779
g12
I72
sg13
I0
sg14
g15
sg16
I0
sg17
I0
sbag6
(g7
g8
Ntp780
Rp781
(dp782
g12
I74
sg13
I0
sg14
g15
sg16
I0
sg17
I0
sbag6
(g7
g8
Ntp783
Rp784
(dp785
g12
I74
sg13
I86
sg14
g15
sg16
I0
sg17
I0
sbag6
(g7
g8
Ntp786
Rp787
(dp788
g12
I72
sg13
I86
sg14
g15
sg16
I0
sg17
I0
sbag6
(g7
g8
Ntp789
Rp790
(dp791
g12
I72
sg13
I0
sg14
g15
sg16
I0
sg17
I0
sbag6
(g7
g8
Ntp792
Rp793
(dp794
g12
I74
sg13
I0
sg14
g15
sg16
I0
sg17
I0
sbag6
(g7
g8
Ntp795
Rp796
(dp797
g12
I74
sg13
I90
sg14
g15
sg16
I0
sg17
I0
sbag6
(g7
g8
Ntp798
Rp799
(dp800
g12
I72
sg13
I90
sg14
g15
sg16
I0
sg17
I0
sbag6
(g7
g8
Ntp801
Rp802
(dp803
g12
I74
sg13
I0
sg14
g15
sg16
I0
sg17
I0
sbag6
(g7
g8
Ntp804
Rp805
(dp806
g12
I72
sg13
I0
sg14
g15
sg16
I0
sg17
I0
sbasS'times'
p807
(lp808
F4.660538911819458
aF4.666940927505493
aF5.506054878234863
aF5.5154640674591064
aF5.52703595161438
aF5.534790992736816
aF6.181196928024292
aF6.274686098098755
aF6.2857019901275635
aF6.285720109939575
aF6.509531021118164
aF6.5150909423828125
aF6.536168098449707
aF6.537419080734253
aF7.56116795539856
aF7.5655059814453125
aF7.575155973434448
aF7.578991889953613
aF8.112112998962402
aF8.119594097137451
aF8.139141082763672
aF8.144493103027344
aF8.70480489730835
aF8.707249879837036
aF8.708756923675537
aF8.713025093078613
aF9.406678915023804
aF9.410932064056396
aF10.907715082168579
aF10.911875009536743
aF11.045794010162354
aF11.065911054611206
aF11.704689979553223
aF11.724189043045044
aF11.854408979415894
aF11.86152696609497
aF12.188294887542725
aF12.188309907913208
aF12.320210933685303
aF12.372565031051636
aF12.858191013336182
aF12.86082410812378
aF13.036046981811523
aF13.06278109550476
aF13.152756929397583
aF13.152771949768066
aF13.294032096862793
aF13.360378980636597
aF13.725759983062744
aF13.730015993118286
aF13.860827922821045
aF13.875283002853394
aF14.613326072692871
aF14.622670888900757
aF15.129993915557861
aF15.13575792312622
aF15.453327894210815
aF15.453342914581299
aF15.661289930343628
aF15.674391984939575
aF15.746994972229004
aF15.750736951828003
aF16.17574405670166
aF16.180078983306885
aF16.260972023010254
aF16.26482605934143
aF16.477899074554443
aF16.50677990913391
aF16.896372079849243
aF16.896388053894043
aF17.139028072357178
aF17.141520977020264
aF17.380553007125854
aF17.387528896331787
aF18.213365077972412
aF18.213380098342896
aF18.521174907684326
aF18.564032077789307
aF18.56777811050415
aF18.58316397666931
aF18.816082000732422
aF18.818758010864258
aF19.143518924713135
aF19.143534898757935
aF19.367976903915405
aF19.402724981307983
aF19.46182608604431
aF19.467652082443237
aF19.666078090667725
aF19.667321920394897
aF19.724824905395508
aF19.738440990447998
aF19.918973922729492
aF19.949727058410645
aF20.535374879837036
aF20.542738914489746
aF20.733763933181763
aF20.8188419342041
aF20.874027013778687
aF20.87666893005371
aF21.068095922470093
aF21.06811499595642
aF21.10387110710144
aF21.113373041152954
aF21.233036994934082
aF21.278701066970825
aF21.756675958633423
aF21.76095199584961
aF21.977097034454346
aF21.994870901107788
aF22.018218994140625
aF22.018234968185425
aF22.172488927841187
aF22.209115028381348
aF22.72780704498291
aF22.733398914337158
aF22.90827703475952
aF22.93001699447632
aF22.9372398853302
aF22.938761949539185
aF23.023924112319946
aF23.082823991775513
aF23.248011112213135
aF23.24802589416504
aF23.399463891983032
aF23.413132905960083
aF23.448210954666138
aF23.45115900039673
aF23.615916967391968
aF23.61999797821045
aF23.690267086029053
aF23.690283060073853
aF23.846904039382935
aF23.87684392929077
aF24.139972925186157
aF24.141496896743774
aF24.31142807006836
aF24.33614993095398
aF24.40225911140442
aF24.408541917800903
aF24.510648012161255
aF24.524013996124268
aF24.647804975509644
aF24.654962062835693
aF24.815963983535767
aF24.83998990058899
aF24.969188928604126
aF24.97215509414673
aF25.116590976715088
aF25.176225900650024
aF25.192893028259277
aF25.201026916503906
aF25.375570058822632
aF25.428092002868652
aF25.661855936050415
aF25.664303064346313
aF25.864872932434082
aF25.88425588607788
aF28.023541927337646
aF28.02807092666626
aF28.378382921218872
aF28.393644094467163
aF28.601903915405273
aF28.61610507965088
aF28.753483057022095
aF28.77482008934021
aF28.834017038345337
aF28.837981939315796
aF28.97607398033142
aF28.99364709854126
aF29.44692897796631
aF29.457303047180176
aF29.587743997573853
aF29.59860396385193
aF29.90429997444153
aF29.921068906784058
aF30.07247304916382
aF30.075445890426636
aF30.241684913635254
aF30.246659994125366
aF30.356566905975342
aF30.406524896621704
aF30.487112045288086
aF30.513200044631958
aF30.53036093711853
aF30.574526071548462
aF30.588388919830322
aF30.637749910354614
aF31.270652055740356
aF31.27066707611084
aF31.282461881637573
aF31.490483045578003
aF31.49309206008911
aF31.514872074127197
aF32.79834794998169
aF32.80659890174866
aF33.05726194381714
aF33.0798180103302
aF33.08569598197937
aF33.09466004371643
aF33.2893500328064
aF33.302494049072266
aF33.79371905326843
aF33.79525709152222
aF34.01842999458313
aF34.02280592918396
aF34.13015794754028
aF34.13453388214111
aF34.32464003562927
aF34.32727289199829
aF34.548288106918335
aF34.548304080963135
aF34.82664108276367
aF34.84248495101929
aF35.069519996643066
aF35.07475209236145
aF35.260740995407104
aF35.271831035614014
aF35.743589878082275
aF35.747639894485474
aF35.9788761138916
aF35.986004114151
aF36.05673098564148
aF36.05674505233765
aF36.25063991546631
aF36.26309108734131
aF36.555646896362305
aF36.55810594558716
aF36.7523889541626
aF36.83244705200195
aF36.91737103462219
aF36.92860507965088
aF37.179511070251465
aF37.208669900894165
aF37.23904204368591
aF37.25002098083496
aF37.42245602607727
aF37.450541973114014
aF38.22229504585266
aF38.22716999053955
aF38.35576105117798
aF38.397783041000366
aF38.49853706359863
aF38.51761198043823
aF38.72268605232239
aF38.73115301132202
aF38.776681900024414
aF38.78993797302246
aF38.829668045043945
aF38.82968211174011
aF38.899811029434204
aF38.93045902252197
aF39.20300507545471
aF39.21549892425537
aF39.26511907577515
aF39.26905703544617
aF39.573808908462524
aF39.57383108139038
aF39.99096894264221
aF39.9993679523468
aF40.33230400085449
aF40.33231997489929
aF40.512145042419434
aF40.51779103279114
asb.