(imidi_read
MidiReader
p0
(dp1
S'input'
p2
S'Digital Piano'
p3
sS'messages'
p4
(lp5
ccopy_reg
_reconstructor
p6
(cmido.messages.messages
Message
p7
c__builtin__
object
p8
Ntp9
Rp10
(dp11
S'note'
p12
I60
sS'velocity'
p13
I71
sS'type'
p14
S'note_on'
p15
sS'channel'
p16
I0
sS'time'
p17
I0
sbag6
(g7
g8
Ntp18
Rp19
(dp20
g12
I62
sg13
I75
sg14
g15
sg16
I0
sg17
I0
sbag6
(g7
g8
Ntp21
Rp22
(dp23
g12
I60
sg13
I0
sg14
g15
sg16
I0
sg17
I0
sbag6
(g7
g8
Ntp24
Rp25
(dp26
g12
I64
sg13
I75
sg14
g15
sg16
I0
sg17
I0
sbag6
(g7
g8
Ntp27
Rp28
(dp29
g12
I62
sg13
I0
sg14
g15
sg16
I0
sg17
I0
sbag6
(g7
g8
Ntp30
Rp31
(dp32
g12
I64
sg13
I0
sg14
g15
sg16
I0
sg17
I0
sbag6
(g7
g8
Ntp33
Rp34
(dp35
g12
I65
sg13
I67
sg14
g15
sg16
I0
sg17
I0
sbag6
(g7
g8
Ntp36
Rp37
(dp38
g12
I67
sg13
I71
sg14
g15
sg16
I0
sg17
I0
sbag6
(g7
g8
Ntp39
Rp40
(dp41
g12
I65
sg13
I0
sg14
g15
sg16
I0
sg17
I0
sbag6
(g7
g8
Ntp42
Rp43
(dp44
g12
I69
sg13
I80
sg14
g15
sg16
I0
sg17
I0
sbag6
(g7
g8
Ntp45
Rp46
(dp47
g12
I67
sg13
I0
sg14
g15
sg16
I0
sg17
I0
sbag6
(g7
g8
Ntp48
Rp49
(dp50
g12
I71
sg13
I79
sg14
g15
sg16
I0
sg17
I0
sbag6
(g7
g8
Ntp51
Rp52
(dp53
g12
I69
sg13
I0
sg14
g15
sg16
I0
sg17
I0
sbag6
(g7
g8
Ntp54
Rp55
(dp56
g12
I72
sg13
I79
sg14
g15
sg16
I0
sg17
I0
sbag6
(g7
g8
Ntp57
Rp58
(dp59
g12
I71
sg13
I0
sg14
g15
sg16
I0
sg17
I0
sbag6
(g7
g8
Ntp60
Rp61
(dp62
g12
I71
sg13
I71
sg14
g15
sg16
I0
sg17
I0
sbag6
(g7
g8
Ntp63
Rp64
(dp65
g12
I72
sg13
I0
sg14
g15
sg16
I0
sg17
I0
sbag6
(g7
g8
Ntp66
Rp67
(dp68
g12
I69
sg13
I60
sg14
g15
sg16
I0
sg17
I0
sbag6
(g7
g8
Ntp69
Rp70
(dp71
g12
I71
sg13
I0
sg14
g15
sg16
I0
sg17
I0
sbag6
(g7
g8
Ntp72
Rp73
(dp74
g12
I67
sg13
I64
sg14
g15
sg16
I0
sg17
I0
sbag6
(g7
g8
Ntp75
Rp76
(dp77
g12
I69
sg13
I0
sg14
g15
sg16
I0
sg17
I0
sbag6
(g7
g8
Ntp78
Rp79
(dp80
g12
I67
sg13
I0
sg14
g15
sg16
I0
sg17
I0
sbag6
(g7
g8
Ntp81
Rp82
(dp83
g12
I65
sg13
I68
sg14
g15
sg16
I0
sg17
I0
sbag6
(g7
g8
Ntp84
Rp85
(dp86
g12
I64
sg13
I51
sg14
g15
sg16
I0
sg17
I0
sbag6
(g7
g8
Ntp87
Rp88
(dp89
g12
I65
sg13
I0
sg14
g15
sg16
I0
sg17
I0
sbag6
(g7
g8
Ntp90
Rp91
(dp92
g12
I62
sg13
I69
sg14
g15
sg16
I0
sg17
I0
sbag6
(g7
g8
Ntp93
Rp94
(dp95
g12
I64
sg13
I0
sg14
g15
sg16
I0
sg17
I0
sbag6
(g7
g8
Ntp96
Rp97
(dp98
g12
I62
sg13
I0
sg14
g15
sg16
I0
sg17
I0
sbag6
(g7
g8
Ntp99
Rp100
(dp101
g12
I60
sg13
I75
sg14
g15
sg16
I0
sg17
I0
sbag6
(g7
g8
Ntp102
Rp103
(dp104
g12
I61
sg13
I67
sg14
g15
sg16
I0
sg17
I0
sbag6
(g7
g8
Ntp105
Rp106
(dp107
g12
I60
sg13
I0
sg14
g15
sg16
I0
sg17
I0
sbag6
(g7
g8
Ntp108
Rp109
(dp110
g12
I63
sg13
I67
sg14
g15
sg16
I0
sg17
I0
sbag6
(g7
g8
Ntp111
Rp112
(dp113
g12
I61
sg13
I0
sg14
g15
sg16
I0
sg17
I0
sbag6
(g7
g8
Ntp114
Rp115
(dp116
g12
I63
sg13
I0
sg14
g15
sg16
I0
sg17
I0
sbag6
(g7
g8
Ntp117
Rp118
(dp119
g12
I65
sg13
I76
sg14
g15
sg16
I0
sg17
I0
sbag6
(g7
g8
Ntp120
Rp121
(dp122
g12
I66
sg13
I76
sg14
g15
sg16
I0
sg17
I0
sbag6
(g7
g8
Ntp123
Rp124
(dp125
g12
I65
sg13
I0
sg14
g15
sg16
I0
sg17
I0
sbag6
(g7
g8
Ntp126
Rp127
(dp128
g12
I68
sg13
I68
sg14
g15
sg16
I0
sg17
I0
sbag6
(g7
g8
Ntp129
Rp130
(dp131
g12
I66
sg13
I0
sg14
g15
sg16
I0
sg17
I0
sbag6
(g7
g8
Ntp132
Rp133
(dp134
g12
I70
sg13
I75
sg14
g15
sg16
I0
sg17
I0
sbag6
(g7
g8
Ntp135
Rp136
(dp137
g12
I68
sg13
I0
sg14
g15
sg16
I0
sg17
I0
sbag6
(g7
g8
Ntp138
Rp139
(dp140
g12
I70
sg13
I0
sg14
g15
sg16
I0
sg17
I0
sbag6
(g7
g8
Ntp141
Rp142
(dp143
g12
I72
sg13
I71
sg14
g15
sg16
I0
sg17
I0
sbag6
(g7
g8
Ntp144
Rp145
(dp146
g12
I72
sg13
I0
sg14
g15
sg16
I0
sg17
I0
sbag6
(g7
g8
Ntp147
Rp148
(dp149
g12
I73
sg13
I73
sg14
g15
sg16
I0
sg17
I0
sbag6
(g7
g8
Ntp150
Rp151
(dp152
g12
I73
sg13
I0
sg14
g15
sg16
I0
sg17
I0
sbag6
(g7
g8
Ntp153
Rp154
(dp155
g12
I75
sg13
I71
sg14
g15
sg16
I0
sg17
I0
sbag6
(g7
g8
Ntp156
Rp157
(dp158
g12
I75
sg13
I0
sg14
g15
sg16
I0
sg17
I0
sbag6
(g7
g8
Ntp159
Rp160
(dp161
g12
I77
sg13
I83
sg14
g15
sg16
I0
sg17
I0
sbag6
(g7
g8
Ntp162
Rp163
(dp164
g12
I78
sg13
I76
sg14
g15
sg16
I0
sg17
I0
sbag6
(g7
g8
Ntp165
Rp166
(dp167
g12
I77
sg13
I0
sg14
g15
sg16
I0
sg17
I0
sbag6
(g7
g8
Ntp168
Rp169
(dp170
g12
I80
sg13
I79
sg14
g15
sg16
I0
sg17
I0
sbag6
(g7
g8
Ntp171
Rp172
(dp173
g12
I78
sg13
I0
sg14
g15
sg16
I0
sg17
I0
sbag6
(g7
g8
Ntp174
Rp175
(dp176
g12
I82
sg13
I76
sg14
g15
sg16
I0
sg17
I0
sbag6
(g7
g8
Ntp177
Rp178
(dp179
g12
I80
sg13
I0
sg14
g15
sg16
I0
sg17
I0
sbag6
(g7
g8
Ntp180
Rp181
(dp182
g12
I82
sg13
I0
sg14
g15
sg16
I0
sg17
I0
sbag6
(g7
g8
Ntp183
Rp184
(dp185
g12
I84
sg13
I75
sg14
g15
sg16
I0
sg17
I0
sbag6
(g7
g8
Ntp186
Rp187
(dp188
g12
I84
sg13
I0
sg14
g15
sg16
I0
sg17
I0
sbag6
(g7
g8
Ntp189
Rp190
(dp191
g12
I85
sg13
I74
sg14
g15
sg16
I0
sg17
I0
sbag6
(g7
g8
Ntp192
Rp193
(dp194
g12
I87
sg13
I75
sg14
g15
sg16
I0
sg17
I0
sbag6
(g7
g8
Ntp195
Rp196
(dp197
g12
I85
sg13
I0
sg14
g15
sg16
I0
sg17
I0
sbag6
(g7
g8
Ntp198
Rp199
(dp200
g12
I87
sg13
I0
sg14
g15
sg16
I0
sg17
I0
sbag6
(g7
g8
Ntp201
Rp202
(dp203
g12
I89
sg13
I82
sg14
g15
sg16
I0
sg17
I0
sbag6
(g7
g8
Ntp204
Rp205
(dp206
g12
I90
sg13
I80
sg14
g15
sg16
I0
sg17
I0
sbag6
(g7
g8
Ntp207
Rp208
(dp209
g12
I89
sg13
I0
sg14
g15
sg16
I0
sg17
I0
sbag6
(g7
g8
Ntp210
Rp211
(dp212
g12
I92
sg13
I84
sg14
g15
sg16
I0
sg17
I0
sbag6
(g7
g8
Ntp213
Rp214
(dp215
g12
I90
sg13
I0
sg14
g15
sg16
I0
sg17
I0
sbag6
(g7
g8
Ntp216
Rp217
(dp218
g12
I94
sg13
I76
sg14
g15
sg16
I0
sg17
I0
sbag6
(g7
g8
Ntp219
Rp220
(dp221
g12
I92
sg13
I0
sg14
g15
sg16
I0
sg17
I0
sbag6
(g7
g8
Ntp222
Rp223
(dp224
g12
I96
sg13
I76
sg14
g15
sg16
I0
sg17
I0
sbag6
(g7
g8
Ntp225
Rp226
(dp227
g12
I94
sg13
I0
sg14
g15
sg16
I0
sg17
I0
sbag6
(g7
g8
Ntp228
Rp229
(dp230
g12
I94
sg13
I68
sg14
g15
sg16
I0
sg17
I0
sbag6
(g7
g8
Ntp231
Rp232
(dp233
g12
I96
sg13
I0
sg14
g15
sg16
I0
sg17
I0
sbag6
(g7
g8
Ntp234
Rp235
(dp236
g12
I92
sg13
I70
sg14
g15
sg16
I0
sg17
I0
sbag6
(g7
g8
Ntp237
Rp238
(dp239
g12
I94
sg13
I0
sg14
g15
sg16
I0
sg17
I0
sbag6
(g7
g8
Ntp240
Rp241
(dp242
g12
I90
sg13
I74
sg14
g15
sg16
I0
sg17
I0
sbag6
(g7
g8
Ntp243
Rp244
(dp245
g12
I92
sg13
I0
sg14
g15
sg16
I0
sg17
I0
sbag6
(g7
g8
Ntp246
Rp247
(dp248
g12
I90
sg13
I0
sg14
g15
sg16
I0
sg17
I0
sbag6
(g7
g8
Ntp249
Rp250
(dp251
g12
I89
sg13
I74
sg14
g15
sg16
I0
sg17
I0
sbag6
(g7
g8
Ntp252
Rp253
(dp254
g12
I89
sg13
I0
sg14
g15
sg16
I0
sg17
I0
sbag6
(g7
g8
Ntp255
Rp256
(dp257
g12
I87
sg13
I78
sg14
g15
sg16
I0
sg17
I0
sbag6
(g7
g8
Ntp258
Rp259
(dp260
g12
I85
sg13
I78
sg14
g15
sg16
I0
sg17
I0
sbag6
(g7
g8
Ntp261
Rp262
(dp263
g12
I87
sg13
I0
sg14
g15
sg16
I0
sg17
I0
sbag6
(g7
g8
Ntp264
Rp265
(dp266
g12
I85
sg13
I0
sg14
g15
sg16
I0
sg17
I0
sbag6
(g7
g8
Ntp267
Rp268
(dp269
g12
I84
sg13
I74
sg14
g15
sg16
I0
sg17
I0
sbag6
(g7
g8
Ntp270
Rp271
(dp272
g12
I84
sg13
I0
sg14
g15
sg16
I0
sg17
I0
sbag6
(g7
g8
Ntp273
Rp274
(dp275
g12
I82
sg13
I84
sg14
g15
sg16
I0
sg17
I0
sbag6
(g7
g8
Ntp276
Rp277
(dp278
g12
I80
sg13
I71
sg14
g15
sg16
I0
sg17
I0
sbag6
(g7
g8
Ntp279
Rp280
(dp281
g12
I82
sg13
I0
sg14
g15
sg16
I0
sg17
I0
sbag6
(g7
g8
Ntp282
Rp283
(dp284
g12
I78
sg13
I76
sg14
g15
sg16
I0
sg17
I0
sbag6
(g7
g8
Ntp285
Rp286
(dp287
g12
I80
sg13
I0
sg14
g15
sg16
I0
sg17
I0
sbag6
(g7
g8
Ntp288
Rp289
(dp290
g12
I78
sg13
I0
sg14
g15
sg16
I0
sg17
I0
sbag6
(g7
g8
Ntp291
Rp292
(dp293
g12
I77
sg13
I70
sg14
g15
sg16
I0
sg17
I0
sbag6
(g7
g8
Ntp294
Rp295
(dp296
g12
I77
sg13
I0
sg14
g15
sg16
I0
sg17
I0
sbag6
(g7
g8
Ntp297
Rp298
(dp299
g12
I75
sg13
I64
sg14
g15
sg16
I0
sg17
I0
sbag6
(g7
g8
Ntp300
Rp301
(dp302
g12
I73
sg13
I74
sg14
g15
sg16
I0
sg17
I0
sbag6
(g7
g8
Ntp303
Rp304
(dp305
g12
I75
sg13
I0
sg14
g15
sg16
I0
sg17
I0
sbag6
(g7
g8
Ntp306
Rp307
(dp308
g12
I73
sg13
I0
sg14
g15
sg16
I0
sg17
I0
sbag6
(g7
g8
Ntp309
Rp310
(dp311
g12
I72
sg13
I66
sg14
g15
sg16
I0
sg17
I0
sbag6
(g7
g8
Ntp312
Rp313
(dp314
g12
I72
sg13
I0
sg14
g15
sg16
I0
sg17
I0
sbag6
(g7
g8
Ntp315
Rp316
(dp317
g12
I70
sg13
I76
sg14
g15
sg16
I0
sg17
I0
sbag6
(g7
g8
Ntp318
Rp319
(dp320
g12
I68
sg13
I74
sg14
g15
sg16
I0
sg17
I0
sbag6
(g7
g8
Ntp321
Rp322
(dp323
g12
I70
sg13
I0
sg14
g15
sg16
I0
sg17
I0
sbag6
(g7
g8
Ntp324
Rp325
(dp326
g12
I66
sg13
I66
sg14
g15
sg16
I0
sg17
I0
sbag6
(g7
g8
Ntp327
Rp328
(dp329
g12
I68
sg13
I0
sg14
g15
sg16
I0
sg17
I0
sbag6
(g7
g8
Ntp330
Rp331
(dp332
g12
I66
sg13
I0
sg14
g15
sg16
I0
sg17
I0
sbag6
(g7
g8
Ntp333
Rp334
(dp335
g12
I65
sg13
I60
sg14
g15
sg16
I0
sg17
I0
sbag6
(g7
g8
Ntp336
Rp337
(dp338
g12
I65
sg13
I0
sg14
g15
sg16
I0
sg17
I0
sbag6
(g7
g8
Ntp339
Rp340
(dp341
g12
I63
sg13
I67
sg14
g15
sg16
I0
sg17
I0
sbag6
(g7
g8
Ntp342
Rp343
(dp344
g12
I61
sg13
I72
sg14
g15
sg16
I0
sg17
I0
sbag6
(g7
g8
Ntp345
Rp346
(dp347
g12
I63
sg13
I0
sg14
g15
sg16
I0
sg17
I0
sbag6
(g7
g8
Ntp348
Rp349
(dp350
g12
I61
sg13
I0
sg14
g15
sg16
I0
sg17
I0
sbag6
(g7
g8
Ntp351
Rp352
(dp353
g12
I60
sg13
I58
sg14
g15
sg16
I0
sg17
I0
sbag6
(g7
g8
Ntp354
Rp355
(dp356
g12
I60
sg13
I0
sg14
g15
sg16
I0
sg17
I0
sbag6
(g7
g8
Ntp357
Rp358
(dp359
g12
I58
sg13
I72
sg14
g15
sg16
I0
sg17
I0
sbag6
(g7
g8
Ntp360
Rp361
(dp362
g12
I56
sg13
I63
sg14
g15
sg16
I0
sg17
I0
sbag6
(g7
g8
Ntp363
Rp364
(dp365
g12
I58
sg13
I0
sg14
g15
sg16
I0
sg17
I0
sbag6
(g7
g8
Ntp366
Rp367
(dp368
g12
I56
sg13
I0
sg14
g15
sg16
I0
sg17
I0
sbag6
(g7
g8
Ntp369
Rp370
(dp371
g12
I54
sg13
I79
sg14
g15
sg16
I0
sg17
I0
sbag6
(g7
g8
Ntp372
Rp373
(dp374
g12
I54
sg13
I0
sg14
g15
sg16
I0
sg17
I0
sbag6
(g7
g8
Ntp375
Rp376
(dp377
g12
I53
sg13
I84
sg14
g15
sg16
I0
sg17
I0
sbag6
(g7
g8
Ntp378
Rp379
(dp380
g12
I53
sg13
I0
sg14
g15
sg16
I0
sg17
I0
sbag6
(g7
g8
Ntp381
Rp382
(dp383
g12
I53
sg13
I75
sg14
g15
sg16
I0
sg17
I0
sbag6
(g7
g8
Ntp384
Rp385
(dp386
g12
I53
sg13
I0
sg14
g15
sg16
I0
sg17
I0
sbag6
(g7
g8
Ntp387
Rp388
(dp389
g12
I57
sg13
I67
sg14
g15
sg16
I0
sg17
I0
sbag6
(g7
g8
Ntp390
Rp391
(dp392
g12
I60
sg13
I68
sg14
g15
sg16
I0
sg17
I0
sbag6
(g7
g8
Ntp393
Rp394
(dp395
g12
I57
sg13
I0
sg14
g15
sg16
I0
sg17
I0
sbag6
(g7
g8
Ntp396
Rp397
(dp398
g12
I60
sg13
I0
sg14
g15
sg16
I0
sg17
I0
sbag6
(g7
g8
Ntp399
Rp400
(dp401
g12
I65
sg13
I87
sg14
g15
sg16
I0
sg17
I0
sbag6
(g7
g8
Ntp402
Rp403
(dp404
g12
I65
sg13
I0
sg14
g15
sg16
I0
sg17
I0
sbag6
(g7
g8
Ntp405
Rp406
(dp407
g12
I69
sg13
I71
sg14
g15
sg16
I0
sg17
I0
sbag6
(g7
g8
Ntp408
Rp409
(dp410
g12
I69
sg13
I0
sg14
g15
sg16
I0
sg17
I0
sbag6
(g7
g8
Ntp411
Rp412
(dp413
g12
I72
sg13
I66
sg14
g15
sg16
I0
sg17
I0
sbag6
(g7
g8
Ntp414
Rp415
(dp416
g12
I72
sg13
I0
sg14
g15
sg16
I0
sg17
I0
sbag6
(g7
g8
Ntp417
Rp418
(dp419
g12
I77
sg13
I51
sg14
g15
sg16
I0
sg17
I0
sbag6
(g7
g8
Ntp420
Rp421
(dp422
g12
I79
sg13
I45
sg14
g15
sg16
I0
sg17
I0
sbag6
(g7
g8
Ntp423
Rp424
(dp425
g12
I77
sg13
I0
sg14
g15
sg16
I0
sg17
I0
sbag6
(g7
g8
Ntp426
Rp427
(dp428
g12
I79
sg13
I0
sg14
g15
sg16
I0
sg17
I0
sbag6
(g7
g8
Ntp429
Rp430
(dp431
g12
I81
sg13
I64
sg14
g15
sg16
I0
sg17
I0
sbag6
(g7
g8
Ntp432
Rp433
(dp434
g12
I84
sg13
I63
sg14
g15
sg16
I0
sg17
I0
sbag6
(g7
g8
Ntp435
Rp436
(dp437
g12
I81
sg13
I0
sg14
g15
sg16
I0
sg17
I0
sbag6
(g7
g8
Ntp438
Rp439
(dp440
g12
I84
sg13
I0
sg14
g15
sg16
I0
sg17
I0
sbag6
(g7
g8
Ntp441
Rp442
(dp443
g12
I89
sg13
I87
sg14
g15
sg16
I0
sg17
I0
sbag6
(g7
g8
Ntp444
Rp445
(dp446
g12
I84
sg13
I62
sg14
g15
sg16
I0
sg17
I0
sbag6
(g7
g8
Ntp447
Rp448
(dp449
g12
I89
sg13
I0
sg14
g15
sg16
I0
sg17
I0
sbag6
(g7
g8
Ntp450
Rp451
(dp452
g12
I81
sg13
I70
sg14
g15
sg16
I0
sg17
I0
sbag6
(g7
g8
Ntp453
Rp454
(dp455
g12
I84
sg13
I0
sg14
g15
sg16
I0
sg17
I0
sbag6
(g7
g8
Ntp456
Rp457
(dp458
g12
I81
sg13
I0
sg14
g15
sg16
I0
sg17
I0
sbag6
(g7
g8
Ntp459
Rp460
(dp461
g12
I77
sg13
I73
sg14
g15
sg16
I0
sg17
I0
sbag6
(g7
g8
Ntp462
Rp463
(dp464
g12
I77
sg13
I0
sg14
g15
sg16
I0
sg17
I0
sbag6
(g7
g8
Ntp465
Rp466
(dp467
g12
I72
sg13
I63
sg14
g15
sg16
I0
sg17
I0
sbag6
(g7
g8
Ntp468
Rp469
(dp470
g12
I72
sg13
I0
sg14
g15
sg16
I0
sg17
I0
sbag6
(g7
g8
Ntp471
Rp472
(dp473
g12
I69
sg13
I79
sg14
g15
sg16
I0
sg17
I0
sbag6
(g7
g8
Ntp474
Rp475
(dp476
g12
I69
sg13
I0
sg14
g15
sg16
I0
sg17
I0
sbag6
(g7
g8
Ntp477
Rp478
(dp479
g12
I65
sg13
I83
sg14
g15
sg16
I0
sg17
I0
sbag6
(g7
g8
Ntp480
Rp481
(dp482
g12
I65
sg13
I0
sg14
g15
sg16
I0
sg17
I0
sbag6
(g7
g8
Ntp483
Rp484
(dp485
g12
I60
sg13
I76
sg14
g15
sg16
I0
sg17
I0
sbag6
(g7
g8
Ntp486
Rp487
(dp488
g12
I60
sg13
I0
sg14
g15
sg16
I0
sg17
I0
sbag6
(g7
g8
Ntp489
Rp490
(dp491
g12
I57
sg13
I77
sg14
g15
sg16
I0
sg17
I0
sbag6
(g7
g8
Ntp492
Rp493
(dp494
g12
I57
sg13
I0
sg14
g15
sg16
I0
sg17
I0
sbag6
(g7
g8
Ntp495
Rp496
(dp497
g12
I53
sg13
I84
sg14
g15
sg16
I0
sg17
I0
sbag6
(g7
g8
Ntp498
Rp499
(dp500
g12
I53
sg13
I0
sg14
g15
sg16
I0
sg17
I0
sbag6
(g7
g8
Ntp501
Rp502
(dp503
g12
I55
sg13
I83
sg14
g15
sg16
I0
sg17
I0
sbag6
(g7
g8
Ntp504
Rp505
(dp506
g12
I58
sg13
I81
sg14
g15
sg16
I0
sg17
I0
sbag6
(g7
g8
Ntp507
Rp508
(dp509
g12
I55
sg13
I0
sg14
g15
sg16
I0
sg17
I0
sbag6
(g7
g8
Ntp510
Rp511
(dp512
g12
I63
sg13
I77
sg14
g15
sg16
I0
sg17
I0
sbag6
(g7
g8
Ntp513
Rp514
(dp515
g12
I58
sg13
I0
sg14
g15
sg16
I0
sg17
I0
sbag6
(g7
g8
Ntp516
Rp517
(dp518
g12
I63
sg13
I0
sg14
g15
sg16
I0
sg17
I0
sbag6
(g7
g8
Ntp519
Rp520
(dp521
g12
I67
sg13
I80
sg14
g15
sg16
I0
sg17
I0
sbag6
(g7
g8
Ntp522
Rp523
(dp524
g12
I67
sg13
I0
sg14
g15
sg16
I0
sg17
I0
sbag6
(g7
g8
Ntp525
Rp526
(dp527
g12
I70
sg13
I78
sg14
g15
sg16
I0
sg17
I0
sbag6
(g7
g8
Ntp528
Rp529
(dp530
g12
I75
sg13
I76
sg14
g15
sg16
I0
sg17
I0
sbag6
(g7
g8
Ntp531
Rp532
(dp533
g12
I70
sg13
I0
sg14
g15
sg16
I0
sg17
I0
sbag6
(g7
g8
Ntp534
Rp535
(dp536
g12
I75
sg13
I0
sg14
g15
sg16
I0
sg17
I0
sbag6
(g7
g8
Ntp537
Rp538
(dp539
g12
I79
sg13
I80
sg14
g15
sg16
I0
sg17
I0
sbag6
(g7
g8
Ntp540
Rp541
(dp542
g12
I82
sg13
I83
sg14
g15
sg16
I0
sg17
I0
sbag6
(g7
g8
Ntp543
Rp544
(dp545
g12
I79
sg13
I0
sg14
g15
sg16
I0
sg17
I0
sbag6
(g7
g8
Ntp546
Rp547
(dp548
g12
I82
sg13
I0
sg14
g15
sg16
I0
sg17
I0
sbag6
(g7
g8
Ntp549
Rp550
(dp551
g12
I87
sg13
I71
sg14
g15
sg16
I0
sg17
I0
sbag6
(g7
g8
Ntp552
Rp553
(dp554
g12
I87
sg13
I0
sg14
g15
sg16
I0
sg17
I0
sbag6
(g7
g8
Ntp555
Rp556
(dp557
g12
I91
sg13
I62
sg14
g15
sg16
I0
sg17
I0
sbag6
(g7
g8
Ntp558
Rp559
(dp560
g12
I87
sg13
I53
sg14
g15
sg16
I0
sg17
I0
sbag6
(g7
g8
Ntp561
Rp562
(dp563
g12
I91
sg13
I0
sg14
g15
sg16
I0
sg17
I0
sbag6
(g7
g8
Ntp564
Rp565
(dp566
g12
I87
sg13
I0
sg14
g15
sg16
I0
sg17
I0
sbag6
(g7
g8
Ntp567
Rp568
(dp569
g12
I82
sg13
I58
sg14
g15
sg16
I0
sg17
I0
sbag6
(g7
g8
Ntp570
Rp571
(dp572
g12
I82
sg13
I0
sg14
g15
sg16
I0
sg17
I0
sbag6
(g7
g8
Ntp573
Rp574
(dp575
g12
I79
sg13
I71
sg14
g15
sg16
I0
sg17
I0
sbag6
(g7
g8
Ntp576
Rp577
(dp578
g12
I79
sg13
I0
sg14
g15
sg16
I0
sg17
I0
sbag6
(g7
g8
Ntp579
Rp580
(dp581
g12
I75
sg13
I71
sg14
g15
sg16
I0
sg17
I0
sbag6
(g7
g8
Ntp582
Rp583
(dp584
g12
I75
sg13
I0
sg14
g15
sg16
I0
sg17
I0
sbag6
(g7
g8
Ntp585
Rp586
(dp587
g12
I70
sg13
I76
sg14
g15
sg16
I0
sg17
I0
sbag6
(g7
g8
Ntp588
Rp589
(dp590
g12
I70
sg13
I0
sg14
g15
sg16
I0
sg17
I0
sbag6
(g7
g8
Ntp591
Rp592
(dp593
g12
I67
sg13
I63
sg14
g15
sg16
I0
sg17
I0
sbag6
(g7
g8
Ntp594
Rp595
(dp596
g12
I67
sg13
I0
sg14
g15
sg16
I0
sg17
I0
sbag6
(g7
g8
Ntp597
Rp598
(dp599
g12
I63
sg13
I72
sg14
g15
sg16
I0
sg17
I0
sbag6
(g7
g8
Ntp600
Rp601
(dp602
g12
I63
sg13
I0
sg14
g15
sg16
I0
sg17
I0
sbag6
(g7
g8
Ntp603
Rp604
(dp605
g12
I58
sg13
I71
sg14
g15
sg16
I0
sg17
I0
sbag6
(g7
g8
Ntp606
Rp607
(dp608
g12
I58
sg13
I0
sg14
g15
sg16
I0
sg17
I0
sbag6
(g7
g8
Ntp609
Rp610
(dp611
g12
I55
sg13
I71
sg14
g15
sg16
I0
sg17
I0
sbag6
(g7
g8
Ntp612
Rp613
(dp614
g12
I55
sg13
I0
sg14
g15
sg16
I0
sg17
I0
sbag6
(g7
g8
Ntp615
Rp616
(dp617
g12
I51
sg13
I76
sg14
g15
sg16
I0
sg17
I0
sbag6
(g7
g8
Ntp618
Rp619
(dp620
g12
I51
sg13
I0
sg14
g15
sg16
I0
sg17
I0
sbag6
(g7
g8
Ntp621
Rp622
(dp623
g12
I46
sg13
I68
sg14
g15
sg16
I0
sg17
I0
sbag6
(g7
g8
Ntp624
Rp625
(dp626
g12
I46
sg13
I0
sg14
g15
sg16
I0
sg17
I0
sbag6
(g7
g8
Ntp627
Rp628
(dp629
g12
I43
sg13
I68
sg14
g15
sg16
I0
sg17
I0
sbag6
(g7
g8
Ntp630
Rp631
(dp632
g12
I46
sg13
I75
sg14
g15
sg16
I0
sg17
I0
sbag6
(g7
g8
Ntp633
Rp634
(dp635
g12
I43
sg13
I0
sg14
g15
sg16
I0
sg17
I0
sbag6
(g7
g8
Ntp636
Rp637
(dp638
g12
I46
sg13
I0
sg14
g15
sg16
I0
sg17
I0
sbag6
(g7
g8
Ntp639
Rp640
(dp641
g12
I51
sg13
I59
sg14
g15
sg16
I0
sg17
I0
sbag6
(g7
g8
Ntp642
Rp643
(dp644
g12
I51
sg13
I0
sg14
g15
sg16
I0
sg17
I0
sbag6
(g7
g8
Ntp645
Rp646
(dp647
g12
I55
sg13
I72
sg14
g15
sg16
I0
sg17
I0
sbag6
(g7
g8
Ntp648
Rp649
(dp650
g12
I55
sg13
I0
sg14
g15
sg16
I0
sg17
I0
sbag6
(g7
g8
Ntp651
Rp652
(dp653
g12
I59
sg13
I55
sg14
g15
sg16
I0
sg17
I0
sbag6
(g7
g8
Ntp654
Rp655
(dp656
g12
I59
sg13
I0
sg14
g15
sg16
I0
sg17
I0
sbag6
(g7
g8
Ntp657
Rp658
(dp659
g12
I63
sg13
I67
sg14
g15
sg16
I0
sg17
I0
sbag6
(g7
g8
Ntp660
Rp661
(dp662
g12
I63
sg13
I0
sg14
g15
sg16
I0
sg17
I0
sbag6
(g7
g8
Ntp663
Rp664
(dp665
g12
I67
sg13
I90
sg14
g15
sg16
I0
sg17
I0
sbag6
(g7
g8
Ntp666
Rp667
(dp668
g12
I67
sg13
I0
sg14
g15
sg16
I0
sg17
I0
sbag6
(g7
g8
Ntp669
Rp670
(dp671
g12
I70
sg13
I80
sg14
g15
sg16
I0
sg17
I0
sbag6
(g7
g8
Ntp672
Rp673
(dp674
g12
I75
sg13
I66
sg14
g15
sg16
I0
sg17
I0
sbag6
(g7
g8
Ntp675
Rp676
(dp677
g12
I70
sg13
I0
sg14
g15
sg16
I0
sg17
I0
sbag6
(g7
g8
Ntp678
Rp679
(dp680
g12
I75
sg13
I0
sg14
g15
sg16
I0
sg17
I0
sbag6
(g7
g8
Ntp681
Rp682
(dp683
g12
I79
sg13
I84
sg14
g15
sg16
I0
sg17
I0
sbag6
(g7
g8
Ntp684
Rp685
(dp686
g12
I82
sg13
I70
sg14
g15
sg16
I0
sg17
I0
sbag6
(g7
g8
Ntp687
Rp688
(dp689
g12
I79
sg13
I0
sg14
g15
sg16
I0
sg17
I0
sbag6
(g7
g8
Ntp690
Rp691
(dp692
g12
I87
sg13
I46
sg14
g15
sg16
I0
sg17
I0
sbag6
(g7
g8
Ntp693
Rp694
(dp695
g12
I82
sg13
I0
sg14
g15
sg16
I0
sg17
I0
sbag6
(g7
g8
Ntp696
Rp697
(dp698
g12
I87
sg13
I0
sg14
g15
sg16
I0
sg17
I0
sbag6
(g7
g8
Ntp699
Rp700
(dp701
g12
I88
sg13
I76
sg14
g15
sg16
I0
sg17
I0
sbag6
(g7
g8
Ntp702
Rp703
(dp704
g12
I88
sg13
I0
sg14
g15
sg16
I0
sg17
I0
sbag6
(g7
g8
Ntp705
Rp706
(dp707
g12
I91
sg13
I94
sg14
g15
sg16
I0
sg17
I0
sbag6
(g7
g8
Ntp708
Rp709
(dp710
g12
I91
sg13
I0
sg14
g15
sg16
I0
sg17
I0
sbag6
(g7
g8
Ntp711
Rp712
(dp713
g12
I89
sg13
I53
sg14
g15
sg16
I0
sg17
I0
sbag6
(g7
g8
Ntp714
Rp715
(dp716
g12
I87
sg13
I62
sg14
g15
sg16
I0
sg17
I0
sbag6
(g7
g8
Ntp717
Rp718
(dp719
g12
I89
sg13
I0
sg14
g15
sg16
I0
sg17
I0
sbag6
(g7
g8
Ntp720
Rp721
(dp722
g12
I86
sg13
I70
sg14
g15
sg16
I0
sg17
I0
sbag6
(g7
g8
Ntp723
Rp724
(dp725
g12
I87
sg13
I0
sg14
g15
sg16
I0
sg17
I0
sbag6
(g7
g8
Ntp726
Rp727
(dp728
g12
I86
sg13
I0
sg14
g15
sg16
I0
sg17
I0
sbag6
(g7
g8
Ntp729
Rp730
(dp731
g12
I84
sg13
I82
sg14
g15
sg16
I0
sg17
I0
sbag6
(g7
g8
Ntp732
Rp733
(dp734
g12
I84
sg13
I0
sg14
g15
sg16
I0
sg17
I0
sbag6
(g7
g8
Ntp735
Rp736
(dp737
g12
I82
sg13
I62
sg14
g15
sg16
I0
sg17
I0
sbag6
(g7
g8
Ntp738
Rp739
(dp740
g12
I82
sg13
I0
sg14
g15
sg16
I0
sg17
I0
sbag6
(g7
g8
Ntp741
Rp742
(dp743
g12
I80
sg13
I63
sg14
g15
sg16
I0
sg17
I0
sbag6
(g7
g8
Ntp744
Rp745
(dp746
g12
I80
sg13
I0
sg14
g15
sg16
I0
sg17
I0
sbag6
(g7
g8
Ntp747
Rp748
(dp749
g12
I79
sg13
I63
sg14
g15
sg16
I0
sg17
I0
sbag6
(g7
g8
Ntp750
Rp751
(dp752
g12
I80
sg13
I55
sg14
g15
sg16
I0
sg17
I0
sbag6
(g7
g8
Ntp753
Rp754
(dp755
g12
I79
sg13
I0
sg14
g15
sg16
I0
sg17
I0
sbag6
(g7
g8
Ntp756
Rp757
(dp758
g12
I80
sg13
I0
sg14
g15
sg16
I0
sg17
I0
sbag6
(g7
g8
Ntp759
Rp760
(dp761
g12
I82
sg13
I47
sg14
g15
sg16
I0
sg17
I0
sbag6
(g7
g8
Ntp762
Rp763
(dp764
g12
I82
sg13
I0
sg14
g15
sg16
I0
sg17
I0
sbag6
(g7
g8
Ntp765
Rp766
(dp767
g12
I84
sg13
I49
sg14
g15
sg16
I0
sg17
I0
sbag6
(g7
g8
Ntp768
Rp769
(dp770
g12
I83
sg13
I38
sg14
g15
sg16
I0
sg17
I0
sbag6
(g7
g8
Ntp771
Rp772
(dp773
g12
I86
sg13
I78
sg14
g15
sg16
I0
sg17
I0
sbag6
(g7
g8
Ntp774
Rp775
(dp776
g12
I83
sg13
I0
sg14
g15
sg16
I0
sg17
I0
sbag6
(g7
g8
Ntp777
Rp778
(dp779
g12
I84
sg13
I0
sg14
g15
sg16
I0
sg17
I0
sbag6
(g7
g8
Ntp780
Rp781
(dp782
g12
I87
sg13
I66
sg14
g15
sg16
I0
sg17
I0
sbag6
(g7
g8
Ntp783
Rp784
(dp785
g12
I86
sg13
I0
sg14
g15
sg16
I0
sg17
I0
sbag6
(g7
g8
Ntp786
Rp787
(dp788
g12
I87
sg13
I0
sg14
g15
sg16
I0
sg17
I0
sbag6
(g7
g8
Ntp789
Rp790
(dp791
g12
I89
sg13
I84
sg14
g15
sg16
I0
sg17
I0
sbag6
(g7
g8
Ntp792
Rp793
(dp794
g12
I89
sg13
I0
sg14
g15
sg16
I0
sg17
I0
sbag6
(g7
g8
Ntp795
Rp796
(dp797
g12
I91
sg13
I79
sg14
g15
sg16
I0
sg17
I0
sbag6
(g7
g8
Ntp798
Rp799
(dp800
g12
I91
sg13
I0
sg14
g15
sg16
I0
sg17
I0
sbag6
(g7
g8
Ntp801
Rp802
(dp803
g12
I93
sg13
I83
sg14
g15
sg16
I0
sg17
I0
sbag6
(g7
g8
Ntp804
Rp805
(dp806
g12
I94
sg13
I82
sg14
g15
sg16
I0
sg17
I0
sbag6
(g7
g8
Ntp807
Rp808
(dp809
g12
I93
sg13
I0
sg14
g15
sg16
I0
sg17
I0
sbag6
(g7
g8
Ntp810
Rp811
(dp812
g12
I94
sg13
I0
sg14
g15
sg16
I0
sg17
I0
sbag6
(g7
g8
Ntp813
Rp814
(dp815
g12
I96
sg13
I94
sg14
g15
sg16
I0
sg17
I0
sbag6
(g7
g8
Ntp816
Rp817
(dp818
g12
I96
sg13
I0
sg14
g15
sg16
I0
sg17
I0
sbag6
(g7
g8
Ntp819
Rp820
(dp821
g12
I96
sg13
I26
sg14
g15
sg16
I0
sg17
I0
sbag6
(g7
g8
Ntp822
Rp823
(dp824
g12
I94
sg13
I66
sg14
g15
sg16
I0
sg17
I0
sbag6
(g7
g8
Ntp825
Rp826
(dp827
g12
I96
sg13
I0
sg14
g15
sg16
I0
sg17
I0
sbag6
(g7
g8
Ntp828
Rp829
(dp830
g12
I93
sg13
I62
sg14
g15
sg16
I0
sg17
I0
sbag6
(g7
g8
Ntp831
Rp832
(dp833
g12
I94
sg13
I0
sg14
g15
sg16
I0
sg17
I0
sbag6
(g7
g8
Ntp834
Rp835
(dp836
g12
I91
sg13
I68
sg14
g15
sg16
I0
sg17
I0
sbag6
(g7
g8
Ntp837
Rp838
(dp839
g12
I93
sg13
I0
sg14
g15
sg16
I0
sg17
I0
sbag6
(g7
g8
Ntp840
Rp841
(dp842
g12
I89
sg13
I68
sg14
g15
sg16
I0
sg17
I0
sbag6
(g7
g8
Ntp843
Rp844
(dp845
g12
I91
sg13
I0
sg14
g15
sg16
I0
sg17
I0
sbag6
(g7
g8
Ntp846
Rp847
(dp848
g12
I89
sg13
I0
sg14
g15
sg16
I0
sg17
I0
sbag6
(g7
g8
Ntp849
Rp850
(dp851
g12
I87
sg13
I66
sg14
g15
sg16
I0
sg17
I0
sbag6
(g7
g8
Ntp852
Rp853
(dp854
g12
I86
sg13
I62
sg14
g15
sg16
I0
sg17
I0
sbag6
(g7
g8
Ntp855
Rp856
(dp857
g12
I87
sg13
I0
sg14
g15
sg16
I0
sg17
I0
sbag6
(g7
g8
Ntp858
Rp859
(dp860
g12
I84
sg13
I71
sg14
g15
sg16
I0
sg17
I0
sbag6
(g7
g8
Ntp861
Rp862
(dp863
g12
I86
sg13
I0
sg14
g15
sg16
I0
sg17
I0
sbag6
(g7
g8
Ntp864
Rp865
(dp866
g12
I84
sg13
I0
sg14
g15
sg16
I0
sg17
I0
sbag6
(g7
g8
Ntp867
Rp868
(dp869
g12
I82
sg13
I71
sg14
g15
sg16
I0
sg17
I0
sbag6
(g7
g8
Ntp870
Rp871
(dp872
g12
I81
sg13
I51
sg14
g15
sg16
I0
sg17
I0
sbag6
(g7
g8
Ntp873
Rp874
(dp875
g12
I82
sg13
I0
sg14
g15
sg16
I0
sg17
I0
sbag6
(g7
g8
Ntp876
Rp877
(dp878
g12
I79
sg13
I63
sg14
g15
sg16
I0
sg17
I0
sbag6
(g7
g8
Ntp879
Rp880
(dp881
g12
I81
sg13
I0
sg14
g15
sg16
I0
sg17
I0
sbag6
(g7
g8
Ntp882
Rp883
(dp884
g12
I77
sg13
I68
sg14
g15
sg16
I0
sg17
I0
sbag6
(g7
g8
Ntp885
Rp886
(dp887
g12
I79
sg13
I0
sg14
g15
sg16
I0
sg17
I0
sbag6
(g7
g8
Ntp888
Rp889
(dp890
g12
I75
sg13
I71
sg14
g15
sg16
I0
sg17
I0
sbag6
(g7
g8
Ntp891
Rp892
(dp893
g12
I77
sg13
I0
sg14
g15
sg16
I0
sg17
I0
sbag6
(g7
g8
Ntp894
Rp895
(dp896
g12
I74
sg13
I66
sg14
g15
sg16
I0
sg17
I0
sbag6
(g7
g8
Ntp897
Rp898
(dp899
g12
I75
sg13
I0
sg14
g15
sg16
I0
sg17
I0
sbag6
(g7
g8
Ntp900
Rp901
(dp902
g12
I72
sg13
I70
sg14
g15
sg16
I0
sg17
I0
sbag6
(g7
g8
Ntp903
Rp904
(dp905
g12
I74
sg13
I0
sg14
g15
sg16
I0
sg17
I0
sbag6
(g7
g8
Ntp906
Rp907
(dp908
g12
I72
sg13
I0
sg14
g15
sg16
I0
sg17
I0
sbag6
(g7
g8
Ntp909
Rp910
(dp911
g12
I70
sg13
I75
sg14
g15
sg16
I0
sg17
I0
sbag6
(g7
g8
Ntp912
Rp913
(dp914
g12
I69
sg13
I56
sg14
g15
sg16
I0
sg17
I0
sbag6
(g7
g8
Ntp915
Rp916
(dp917
g12
I70
sg13
I0
sg14
g15
sg16
I0
sg17
I0
sbag6
(g7
g8
Ntp918
Rp919
(dp920
g12
I67
sg13
I73
sg14
g15
sg16
I0
sg17
I0
sbag6
(g7
g8
Ntp921
Rp922
(dp923
g12
I69
sg13
I0
sg14
g15
sg16
I0
sg17
I0
sbag6
(g7
g8
Ntp924
Rp925
(dp926
g12
I65
sg13
I64
sg14
g15
sg16
I0
sg17
I0
sbag6
(g7
g8
Ntp927
Rp928
(dp929
g12
I67
sg13
I0
sg14
g15
sg16
I0
sg17
I0
sbag6
(g7
g8
Ntp930
Rp931
(dp932
g12
I63
sg13
I68
sg14
g15
sg16
I0
sg17
I0
sbag6
(g7
g8
Ntp933
Rp934
(dp935
g12
I65
sg13
I0
sg14
g15
sg16
I0
sg17
I0
sbag6
(g7
g8
Ntp936
Rp937
(dp938
g12
I62
sg13
I61
sg14
g15
sg16
I0
sg17
I0
sbag6
(g7
g8
Ntp939
Rp940
(dp941
g12
I63
sg13
I0
sg14
g15
sg16
I0
sg17
I0
sbag6
(g7
g8
Ntp942
Rp943
(dp944
g12
I60
sg13
I77
sg14
g15
sg16
I0
sg17
I0
sbag6
(g7
g8
Ntp945
Rp946
(dp947
g12
I62
sg13
I0
sg14
g15
sg16
I0
sg17
I0
sbag6
(g7
g8
Ntp948
Rp949
(dp950
g12
I60
sg13
I0
sg14
g15
sg16
I0
sg17
I0
sbag6
(g7
g8
Ntp951
Rp952
(dp953
g12
I58
sg13
I77
sg14
g15
sg16
I0
sg17
I0
sbag6
(g7
g8
Ntp954
Rp955
(dp956
g12
I57
sg13
I56
sg14
g15
sg16
I0
sg17
I0
sbag6
(g7
g8
Ntp957
Rp958
(dp959
g12
I58
sg13
I0
sg14
g15
sg16
I0
sg17
I0
sbag6
(g7
g8
Ntp960
Rp961
(dp962
g12
I55
sg13
I80
sg14
g15
sg16
I0
sg17
I0
sbag6
(g7
g8
Ntp963
Rp964
(dp965
g12
I57
sg13
I0
sg14
g15
sg16
I0
sg17
I0
sbag6
(g7
g8
Ntp966
Rp967
(dp968
g12
I55
sg13
I0
sg14
g15
sg16
I0
sg17
I0
sbag6
(g7
g8
Ntp969
Rp970
(dp971
g12
I53
sg13
I84
sg14
g15
sg16
I0
sg17
I0
sbag6
(g7
g8
Ntp972
Rp973
(dp974
g12
I54
sg13
I62
sg14
g15
sg16
I0
sg17
I0
sbag6
(g7
g8
Ntp975
Rp976
(dp977
g12
I53
sg13
I0
sg14
g15
sg16
I0
sg17
I0
sbag6
(g7
g8
Ntp978
Rp979
(dp980
g12
I56
sg13
I67
sg14
g15
sg16
I0
sg17
I0
sbag6
(g7
g8
Ntp981
Rp982
(dp983
g12
I54
sg13
I0
sg14
g15
sg16
I0
sg17
I0
sbag6
(g7
g8
Ntp984
Rp985
(dp986
g12
I58
sg13
I65
sg14
g15
sg16
I0
sg17
I0
sbag6
(g7
g8
Ntp987
Rp988
(dp989
g12
I56
sg13
I0
sg14
g15
sg16
I0
sg17
I0
sbag6
(g7
g8
Ntp990
Rp991
(dp992
g12
I58
sg13
I0
sg14
g15
sg16
I0
sg17
I0
sbag6
(g7
g8
Ntp993
Rp994
(dp995
g12
I59
sg13
I80
sg14
g15
sg16
I0
sg17
I0
sbag6
(g7
g8
Ntp996
Rp997
(dp998
g12
I61
sg13
I77
sg14
g15
sg16
I0
sg17
I0
sbag6
(g7
g8
Ntp999
Rp1000
(dp1001
g12
I59
sg13
I0
sg14
g15
sg16
I0
sg17
I0
sbag6
(g7
g8
Ntp1002
Rp1003
(dp1004
g12
I63
sg13
I81
sg14
g15
sg16
I0
sg17
I0
sbag6
(g7
g8
Ntp1005
Rp1006
(dp1007
g12
I61
sg13
I0
sg14
g15
sg16
I0
sg17
I0
sbag6
(g7
g8
Ntp1008
Rp1009
(dp1010
g12
I63
sg13
I0
sg14
g15
sg16
I0
sg17
I0
sbag6
(g7
g8
Ntp1011
Rp1012
(dp1013
g12
I65
sg13
I83
sg14
g15
sg16
I0
sg17
I0
sbag6
(g7
g8
Ntp1014
Rp1015
(dp1016
g12
I66
sg13
I80
sg14
g15
sg16
I0
sg17
I0
sbag6
(g7
g8
Ntp1017
Rp1018
(dp1019
g12
I65
sg13
I0
sg14
g15
sg16
I0
sg17
I0
sbag6
(g7
g8
Ntp1020
Rp1021
(dp1022
g12
I68
sg13
I87
sg14
g15
sg16
I0
sg17
I0
sbag6
(g7
g8
Ntp1023
Rp1024
(dp1025
g12
I66
sg13
I0
sg14
g15
sg16
I0
sg17
I0
sbag6
(g7
g8
Ntp1026
Rp1027
(dp1028
g12
I70
sg13
I76
sg14
g15
sg16
I0
sg17
I0
sbag6
(g7
g8
Ntp1029
Rp1030
(dp1031
g12
I68
sg13
I0
sg14
g15
sg16
I0
sg17
I0
sbag6
(g7
g8
Ntp1032
Rp1033
(dp1034
g12
I70
sg13
I0
sg14
g15
sg16
I0
sg17
I0
sbag6
(g7
g8
Ntp1035
Rp1036
(dp1037
g12
I71
sg13
I63
sg14
g15
sg16
I0
sg17
I0
sbag6
(g7
g8
Ntp1038
Rp1039
(dp1040
g12
I71
sg13
I0
sg14
g15
sg16
I0
sg17
I0
sbag6
(g7
g8
Ntp1041
Rp1042
(dp1043
g12
I73
sg13
I78
sg14
g15
sg16
I0
sg17
I0
sbag6
(g7
g8
Ntp1044
Rp1045
(dp1046
g12
I73
sg13
I0
sg14
g15
sg16
I0
sg17
I0
sbag6
(g7
g8
Ntp1047
Rp1048
(dp1049
g12
I75
sg13
I64
sg14
g15
sg16
I0
sg17
I0
sbag6
(g7
g8
Ntp1050
Rp1051
(dp1052
g12
I75
sg13
I0
sg14
g15
sg16
I0
sg17
I0
sbag6
(g7
g8
Ntp1053
Rp1054
(dp1055
g12
I77
sg13
I71
sg14
g15
sg16
I0
sg17
I0
sbag6
(g7
g8
Ntp1056
Rp1057
(dp1058
g12
I78
sg13
I80
sg14
g15
sg16
I0
sg17
I0
sbag6
(g7
g8
Ntp1059
Rp1060
(dp1061
g12
I77
sg13
I0
sg14
g15
sg16
I0
sg17
I0
sbag6
(g7
g8
Ntp1062
Rp1063
(dp1064
g12
I80
sg13
I75
sg14
g15
sg16
I0
sg17
I0
sbag6
(g7
g8
Ntp1065
Rp1066
(dp1067
g12
I78
sg13
I0
sg14
g15
sg16
I0
sg17
I0
sbag6
(g7
g8
Ntp1068
Rp1069
(dp1070
g12
I82
sg13
I67
sg14
g15
sg16
I0
sg17
I0
sbag6
(g7
g8
Ntp1071
Rp1072
(dp1073
g12
I80
sg13
I0
sg14
g15
sg16
I0
sg17
I0
sbag6
(g7
g8
Ntp1074
Rp1075
(dp1076
g12
I82
sg13
I0
sg14
g15
sg16
I0
sg17
I0
sbag6
(g7
g8
Ntp1077
Rp1078
(dp1079
g12
I83
sg13
I80
sg14
g15
sg16
I0
sg17
I0
sbag6
(g7
g8
Ntp1080
Rp1081
(dp1082
g12
I83
sg13
I0
sg14
g15
sg16
I0
sg17
I0
sbag6
(g7
g8
Ntp1083
Rp1084
(dp1085
g12
I85
sg13
I80
sg14
g15
sg16
I0
sg17
I0
sbag6
(g7
g8
Ntp1086
Rp1087
(dp1088
g12
I87
sg13
I75
sg14
g15
sg16
I0
sg17
I0
sbag6
(g7
g8
Ntp1089
Rp1090
(dp1091
g12
I85
sg13
I0
sg14
g15
sg16
I0
sg17
I0
sbag6
(g7
g8
Ntp1092
Rp1093
(dp1094
g12
I87
sg13
I0
sg14
g15
sg16
I0
sg17
I0
sbag6
(g7
g8
Ntp1095
Rp1096
(dp1097
g12
I89
sg13
I79
sg14
g15
sg16
I0
sg17
I0
sbag6
(g7
g8
Ntp1098
Rp1099
(dp1100
g12
I90
sg13
I80
sg14
g15
sg16
I0
sg17
I0
sbag6
(g7
g8
Ntp1101
Rp1102
(dp1103
g12
I89
sg13
I0
sg14
g15
sg16
I0
sg17
I0
sbag6
(g7
g8
Ntp1104
Rp1105
(dp1106
g12
I92
sg13
I83
sg14
g15
sg16
I0
sg17
I0
sbag6
(g7
g8
Ntp1107
Rp1108
(dp1109
g12
I90
sg13
I0
sg14
g15
sg16
I0
sg17
I0
sbag6
(g7
g8
Ntp1110
Rp1111
(dp1112
g12
I94
sg13
I62
sg14
g15
sg16
I0
sg17
I0
sbag6
(g7
g8
Ntp1113
Rp1114
(dp1115
g12
I92
sg13
I0
sg14
g15
sg16
I0
sg17
I0
sbag6
(g7
g8
Ntp1116
Rp1117
(dp1118
g12
I96
sg13
I71
sg14
g15
sg16
I0
sg17
I0
sbag6
(g7
g8
Ntp1119
Rp1120
(dp1121
g12
I94
sg13
I0
sg14
g15
sg16
I0
sg17
I0
sbag6
(g7
g8
Ntp1122
Rp1123
(dp1124
g12
I94
sg13
I66
sg14
g15
sg16
I0
sg17
I0
sbag6
(g7
g8
Ntp1125
Rp1126
(dp1127
g12
I96
sg13
I0
sg14
g15
sg16
I0
sg17
I0
sbag6
(g7
g8
Ntp1128
Rp1129
(dp1130
g12
I92
sg13
I63
sg14
g15
sg16
I0
sg17
I0
sbag6
(g7
g8
Ntp1131
Rp1132
(dp1133
g12
I94
sg13
I0
sg14
g15
sg16
I0
sg17
I0
sbag6
(g7
g8
Ntp1134
Rp1135
(dp1136
g12
I90
sg13
I80
sg14
g15
sg16
I0
sg17
I0
sbag6
(g7
g8
Ntp1137
Rp1138
(dp1139
g12
I92
sg13
I0
sg14
g15
sg16
I0
sg17
I0
sbag6
(g7
g8
Ntp1140
Rp1141
(dp1142
g12
I89
sg13
I62
sg14
g15
sg16
I0
sg17
I0
sbag6
(g7
g8
Ntp1143
Rp1144
(dp1145
g12
I90
sg13
I0
sg14
g15
sg16
I0
sg17
I0
sbag6
(g7
g8
Ntp1146
Rp1147
(dp1148
g12
I89
sg13
I0
sg14
g15
sg16
I0
sg17
I0
sbag6
(g7
g8
Ntp1149
Rp1150
(dp1151
g12
I87
sg13
I61
sg14
g15
sg16
I0
sg17
I0
sbag6
(g7
g8
Ntp1152
Rp1153
(dp1154
g12
I87
sg13
I0
sg14
g15
sg16
I0
sg17
I0
sbag6
(g7
g8
Ntp1155
Rp1156
(dp1157
g12
I85
sg13
I78
sg14
g15
sg16
I0
sg17
I0
sbag6
(g7
g8
Ntp1158
Rp1159
(dp1160
g12
I85
sg13
I0
sg14
g15
sg16
I0
sg17
I0
sbag6
(g7
g8
Ntp1161
Rp1162
(dp1163
g12
I83
sg13
I63
sg14
g15
sg16
I0
sg17
I0
sbag6
(g7
g8
Ntp1164
Rp1165
(dp1166
g12
I83
sg13
I0
sg14
g15
sg16
I0
sg17
I0
sbag6
(g7
g8
Ntp1167
Rp1168
(dp1169
g12
I82
sg13
I60
sg14
g15
sg16
I0
sg17
I0
sbag6
(g7
g8
Ntp1170
Rp1171
(dp1172
g12
I82
sg13
I0
sg14
g15
sg16
I0
sg17
I0
sbag6
(g7
g8
Ntp1173
Rp1174
(dp1175
g12
I80
sg13
I56
sg14
g15
sg16
I0
sg17
I0
sbag6
(g7
g8
Ntp1176
Rp1177
(dp1178
g12
I80
sg13
I0
sg14
g15
sg16
I0
sg17
I0
sbag6
(g7
g8
Ntp1179
Rp1180
(dp1181
g12
I78
sg13
I73
sg14
g15
sg16
I0
sg17
I0
sbag6
(g7
g8
Ntp1182
Rp1183
(dp1184
g12
I78
sg13
I0
sg14
g15
sg16
I0
sg17
I0
sbag6
(g7
g8
Ntp1185
Rp1186
(dp1187
g12
I77
sg13
I61
sg14
g15
sg16
I0
sg17
I0
sbag6
(g7
g8
Ntp1188
Rp1189
(dp1190
g12
I77
sg13
I0
sg14
g15
sg16
I0
sg17
I0
sbag6
(g7
g8
Ntp1191
Rp1192
(dp1193
g12
I75
sg13
I62
sg14
g15
sg16
I0
sg17
I0
sbag6
(g7
g8
Ntp1194
Rp1195
(dp1196
g12
I73
sg13
I79
sg14
g15
sg16
I0
sg17
I0
sbag6
(g7
g8
Ntp1197
Rp1198
(dp1199
g12
I75
sg13
I0
sg14
g15
sg16
I0
sg17
I0
sbag6
(g7
g8
Ntp1200
Rp1201
(dp1202
g12
I73
sg13
I0
sg14
g15
sg16
I0
sg17
I0
sbag6
(g7
g8
Ntp1203
Rp1204
(dp1205
g12
I71
sg13
I70
sg14
g15
sg16
I0
sg17
I0
sbag6
(g7
g8
Ntp1206
Rp1207
(dp1208
g12
I71
sg13
I0
sg14
g15
sg16
I0
sg17
I0
sbag6
(g7
g8
Ntp1209
Rp1210
(dp1211
g12
I70
sg13
I62
sg14
g15
sg16
I0
sg17
I0
sbag6
(g7
g8
Ntp1212
Rp1213
(dp1214
g12
I70
sg13
I0
sg14
g15
sg16
I0
sg17
I0
sbag6
(g7
g8
Ntp1215
Rp1216
(dp1217
g12
I66
sg13
I71
sg14
g15
sg16
I0
sg17
I0
sbag6
(g7
g8
Ntp1218
Rp1219
(dp1220
g12
I66
sg13
I0
sg14
g15
sg16
I0
sg17
I0
sbag6
(g7
g8
Ntp1221
Rp1222
(dp1223
g12
I65
sg13
I74
sg14
g15
sg16
I0
sg17
I0
sbag6
(g7
g8
Ntp1224
Rp1225
(dp1226
g12
I65
sg13
I0
sg14
g15
sg16
I0
sg17
I0
sbag6
(g7
g8
Ntp1227
Rp1228
(dp1229
g12
I63
sg13
I74
sg14
g15
sg16
I0
sg17
I0
sbag6
(g7
g8
Ntp1230
Rp1231
(dp1232
g12
I61
sg13
I87
sg14
g15
sg16
I0
sg17
I0
sbag6
(g7
g8
Ntp1233
Rp1234
(dp1235
g12
I63
sg13
I0
sg14
g15
sg16
I0
sg17
I0
sbag6
(g7
g8
Ntp1236
Rp1237
(dp1238
g12
I61
sg13
I0
sg14
g15
sg16
I0
sg17
I0
sbag6
(g7
g8
Ntp1239
Rp1240
(dp1241
g12
I59
sg13
I88
sg14
g15
sg16
I0
sg17
I0
sbag6
(g7
g8
Ntp1242
Rp1243
(dp1244
g12
I59
sg13
I0
sg14
g15
sg16
I0
sg17
I0
sbag6
(g7
g8
Ntp1245
Rp1246
(dp1247
g12
I58
sg13
I84
sg14
g15
sg16
I0
sg17
I0
sbag6
(g7
g8
Ntp1248
Rp1249
(dp1250
g12
I56
sg13
I76
sg14
g15
sg16
I0
sg17
I0
sbag6
(g7
g8
Ntp1251
Rp1252
(dp1253
g12
I58
sg13
I0
sg14
g15
sg16
I0
sg17
I0
sbag6
(g7
g8
Ntp1254
Rp1255
(dp1256
g12
I56
sg13
I0
sg14
g15
sg16
I0
sg17
I0
sbag6
(g7
g8
Ntp1257
Rp1258
(dp1259
g12
I54
sg13
I90
sg14
g15
sg16
I0
sg17
I0
sbag6
(g7
g8
Ntp1260
Rp1261
(dp1262
g12
I54
sg13
I0
sg14
g15
sg16
I0
sg17
I0
sbag6
(g7
g8
Ntp1263
Rp1264
(dp1265
g12
I53
sg13
I90
sg14
g15
sg16
I0
sg17
I0
sbag6
(g7
g8
Ntp1266
Rp1267
(dp1268
g12
I53
sg13
I0
sg14
g15
sg16
I0
sg17
I0
sbag6
(g7
g8
Ntp1269
Rp1270
(dp1271
g12
I51
sg13
I85
sg14
g15
sg16
I0
sg17
I0
sbag6
(g7
g8
Ntp1272
Rp1273
(dp1274
g12
I51
sg13
I0
sg14
g15
sg16
I0
sg17
I0
sbag6
(g7
g8
Ntp1275
Rp1276
(dp1277
g12
I49
sg13
I88
sg14
g15
sg16
I0
sg17
I0
sbag6
(g7
g8
Ntp1278
Rp1279
(dp1280
g12
I49
sg13
I0
sg14
g15
sg16
I0
sg17
I0
sbag6
(g7
g8
Ntp1281
Rp1282
(dp1283
g12
I47
sg13
I85
sg14
g15
sg16
I0
sg17
I0
sbag6
(g7
g8
Ntp1284
Rp1285
(dp1286
g12
I47
sg13
I0
sg14
g15
sg16
I0
sg17
I0
sbag6
(g7
g8
Ntp1287
Rp1288
(dp1289
g12
I46
sg13
I88
sg14
g15
sg16
I0
sg17
I0
sbag6
(g7
g8
Ntp1290
Rp1291
(dp1292
g12
I46
sg13
I0
sg14
g15
sg16
I0
sg17
I0
sbag6
(g7
g8
Ntp1293
Rp1294
(dp1295
g12
I44
sg13
I88
sg14
g15
sg16
I0
sg17
I0
sbag6
(g7
g8
Ntp1296
Rp1297
(dp1298
g12
I44
sg13
I0
sg14
g15
sg16
I0
sg17
I0
sbag6
(g7
g8
Ntp1299
Rp1300
(dp1301
g12
I42
sg13
I92
sg14
g15
sg16
I0
sg17
I0
sbag6
(g7
g8
Ntp1302
Rp1303
(dp1304
g12
I42
sg13
I0
sg14
g15
sg16
I0
sg17
I0
sbag6
(g7
g8
Ntp1305
Rp1306
(dp1307
g12
I41
sg13
I81
sg14
g15
sg16
I0
sg17
I0
sbag6
(g7
g8
Ntp1308
Rp1309
(dp1310
g12
I41
sg13
I0
sg14
g15
sg16
I0
sg17
I0
sbag6
(g7
g8
Ntp1311
Rp1312
(dp1313
g12
I48
sg13
I88
sg14
g15
sg16
I0
sg17
I0
sbag6
(g7
g8
Ntp1314
Rp1315
(dp1316
g12
I50
sg13
I85
sg14
g15
sg16
I0
sg17
I0
sbag6
(g7
g8
Ntp1317
Rp1318
(dp1319
g12
I48
sg13
I0
sg14
g15
sg16
I0
sg17
I0
sbag6
(g7
g8
Ntp1320
Rp1321
(dp1322
g12
I52
sg13
I74
sg14
g15
sg16
I0
sg17
I0
sbag6
(g7
g8
Ntp1323
Rp1324
(dp1325
g12
I50
sg13
I0
sg14
g15
sg16
I0
sg17
I0
sbag6
(g7
g8
Ntp1326
Rp1327
(dp1328
g12
I53
sg13
I72
sg14
g15
sg16
I0
sg17
I0
sbag6
(g7
g8
Ntp1329
Rp1330
(dp1331
g12
I52
sg13
I0
sg14
g15
sg16
I0
sg17
I0
sbag6
(g7
g8
Ntp1332
Rp1333
(dp1334
g12
I52
sg13
I79
sg14
g15
sg16
I0
sg17
I0
sbag6
(g7
g8
Ntp1335
Rp1336
(dp1337
g12
I53
sg13
I0
sg14
g15
sg16
I0
sg17
I0
sbag6
(g7
g8
Ntp1338
Rp1339
(dp1340
g12
I50
sg13
I79
sg14
g15
sg16
I0
sg17
I0
sbag6
(g7
g8
Ntp1341
Rp1342
(dp1343
g12
I52
sg13
I0
sg14
g15
sg16
I0
sg17
I0
sbag6
(g7
g8
Ntp1344
Rp1345
(dp1346
g12
I50
sg13
I0
sg14
g15
sg16
I0
sg17
I0
sbag6
(g7
g8
Ntp1347
Rp1348
(dp1349
g12
I48
sg13
I83
sg14
g15
sg16
I0
sg17
I0
sbag6
(g7
g8
Ntp1350
Rp1351
(dp1352
g12
I52
sg13
I85
sg14
g15
sg16
I0
sg17
I0
sbag6
(g7
g8
Ntp1353
Rp1354
(dp1355
g12
I48
sg13
I0
sg14
g15
sg16
I0
sg17
I0
sbag6
(g7
g8
Ntp1356
Rp1357
(dp1358
g12
I55
sg13
I80
sg14
g15
sg16
I0
sg17
I0
sbag6
(g7
g8
Ntp1359
Rp1360
(dp1361
g12
I52
sg13
I0
sg14
g15
sg16
I0
sg17
I0
sbag6
(g7
g8
Ntp1362
Rp1363
(dp1364
g12
I55
sg13
I0
sg14
g15
sg16
I0
sg17
I0
sbag6
(g7
g8
Ntp1365
Rp1366
(dp1367
g12
I60
sg13
I79
sg14
g15
sg16
I0
sg17
I0
sbag6
(g7
g8
Ntp1368
Rp1369
(dp1370
g12
I64
sg13
I85
sg14
g15
sg16
I0
sg17
I0
sbag6
(g7
g8
Ntp1371
Rp1372
(dp1373
g12
I60
sg13
I0
sg14
g15
sg16
I0
sg17
I0
sbag6
(g7
g8
Ntp1374
Rp1375
(dp1376
g12
I67
sg13
I84
sg14
g15
sg16
I0
sg17
I0
sbag6
(g7
g8
Ntp1377
Rp1378
(dp1379
g12
I64
sg13
I0
sg14
g15
sg16
I0
sg17
I0
sbag6
(g7
g8
Ntp1380
Rp1381
(dp1382
g12
I67
sg13
I0
sg14
g15
sg16
I0
sg17
I0
sbag6
(g7
g8
Ntp1383
Rp1384
(dp1385
g12
I72
sg13
I83
sg14
g15
sg16
I0
sg17
I0
sbag6
(g7
g8
Ntp1386
Rp1387
(dp1388
g12
I76
sg13
I79
sg14
g15
sg16
I0
sg17
I0
sbag6
(g7
g8
Ntp1389
Rp1390
(dp1391
g12
I72
sg13
I0
sg14
g15
sg16
I0
sg17
I0
sbag6
(g7
g8
Ntp1392
Rp1393
(dp1394
g12
I79
sg13
I80
sg14
g15
sg16
I0
sg17
I0
sbag6
(g7
g8
Ntp1395
Rp1396
(dp1397
g12
I76
sg13
I0
sg14
g15
sg16
I0
sg17
I0
sbag6
(g7
g8
Ntp1398
Rp1399
(dp1400
g12
I84
sg13
I78
sg14
g15
sg16
I0
sg17
I0
sbag6
(g7
g8
Ntp1401
Rp1402
(dp1403
g12
I79
sg13
I0
sg14
g15
sg16
I0
sg17
I0
sbag6
(g7
g8
Ntp1404
Rp1405
(dp1406
g12
I79
sg13
I78
sg14
g15
sg16
I0
sg17
I0
sbag6
(g7
g8
Ntp1407
Rp1408
(dp1409
g12
I84
sg13
I0
sg14
g15
sg16
I0
sg17
I0
sbag6
(g7
g8
Ntp1410
Rp1411
(dp1412
g12
I76
sg13
I75
sg14
g15
sg16
I0
sg17
I0
sbag6
(g7
g8
Ntp1413
Rp1414
(dp1415
g12
I79
sg13
I0
sg14
g15
sg16
I0
sg17
I0
sbag6
(g7
g8
Ntp1416
Rp1417
(dp1418
g12
I72
sg13
I79
sg14
g15
sg16
I0
sg17
I0
sbag6
(g7
g8
Ntp1419
Rp1420
(dp1421
g12
I76
sg13
I0
sg14
g15
sg16
I0
sg17
I0
sbag6
(g7
g8
Ntp1422
Rp1423
(dp1424
g12
I72
sg13
I0
sg14
g15
sg16
I0
sg17
I0
sbag6
(g7
g8
Ntp1425
Rp1426
(dp1427
g12
I67
sg13
I87
sg14
g15
sg16
I0
sg17
I0
sbag6
(g7
g8
Ntp1428
Rp1429
(dp1430
g12
I64
sg13
I83
sg14
g15
sg16
I0
sg17
I0
sbag6
(g7
g8
Ntp1431
Rp1432
(dp1433
g12
I67
sg13
I0
sg14
g15
sg16
I0
sg17
I0
sbag6
(g7
g8
Ntp1434
Rp1435
(dp1436
g12
I60
sg13
I81
sg14
g15
sg16
I0
sg17
I0
sbag6
(g7
g8
Ntp1437
Rp1438
(dp1439
g12
I64
sg13
I0
sg14
g15
sg16
I0
sg17
I0
sbag6
(g7
g8
Ntp1440
Rp1441
(dp1442
g12
I64
sg13
I76
sg14
g15
sg16
I0
sg17
I0
sbag6
(g7
g8
Ntp1443
Rp1444
(dp1445
g12
I60
sg13
I0
sg14
g15
sg16
I0
sg17
I0
sbag6
(g7
g8
Ntp1446
Rp1447
(dp1448
g12
I67
sg13
I84
sg14
g15
sg16
I0
sg17
I0
sbag6
(g7
g8
Ntp1449
Rp1450
(dp1451
g12
I64
sg13
I0
sg14
g15
sg16
I0
sg17
I0
sbag6
(g7
g8
Ntp1452
Rp1453
(dp1454
g12
I67
sg13
I0
sg14
g15
sg16
I0
sg17
I0
sbag6
(g7
g8
Ntp1455
Rp1456
(dp1457
g12
I72
sg13
I86
sg14
g15
sg16
I0
sg17
I0
sbag6
(g7
g8
Ntp1458
Rp1459
(dp1460
g12
I76
sg13
I74
sg14
g15
sg16
I0
sg17
I0
sbag6
(g7
g8
Ntp1461
Rp1462
(dp1463
g12
I72
sg13
I0
sg14
g15
sg16
I0
sg17
I0
sbag6
(g7
g8
Ntp1464
Rp1465
(dp1466
g12
I79
sg13
I78
sg14
g15
sg16
I0
sg17
I0
sbag6
(g7
g8
Ntp1467
Rp1468
(dp1469
g12
I76
sg13
I0
sg14
g15
sg16
I0
sg17
I0
sbag6
(g7
g8
Ntp1470
Rp1471
(dp1472
g12
I79
sg13
I0
sg14
g15
sg16
I0
sg17
I0
sbag6
(g7
g8
Ntp1473
Rp1474
(dp1475
g12
I84
sg13
I75
sg14
g15
sg16
I0
sg17
I0
sbag6
(g7
g8
Ntp1476
Rp1477
(dp1478
g12
I88
sg13
I74
sg14
g15
sg16
I0
sg17
I0
sbag6
(g7
g8
Ntp1479
Rp1480
(dp1481
g12
I84
sg13
I0
sg14
g15
sg16
I0
sg17
I0
sbag6
(g7
g8
Ntp1482
Rp1483
(dp1484
g12
I91
sg13
I73
sg14
g15
sg16
I0
sg17
I0
sbag6
(g7
g8
Ntp1485
Rp1486
(dp1487
g12
I88
sg13
I0
sg14
g15
sg16
I0
sg17
I0
sbag6
(g7
g8
Ntp1488
Rp1489
(dp1490
g12
I91
sg13
I0
sg14
g15
sg16
I0
sg17
I0
sbag6
(g7
g8
Ntp1491
Rp1492
(dp1493
g12
I96
sg13
I91
sg14
g15
sg16
I0
sg17
I0
sbag6
(g7
g8
Ntp1494
Rp1495
(dp1496
g12
I91
sg13
I80
sg14
g15
sg16
I0
sg17
I0
sbag6
(g7
g8
Ntp1497
Rp1498
(dp1499
g12
I96
sg13
I0
sg14
g15
sg16
I0
sg17
I0
sbag6
(g7
g8
Ntp1500
Rp1501
(dp1502
g12
I88
sg13
I78
sg14
g15
sg16
I0
sg17
I0
sbag6
(g7
g8
Ntp1503
Rp1504
(dp1505
g12
I91
sg13
I0
sg14
g15
sg16
I0
sg17
I0
sbag6
(g7
g8
Ntp1506
Rp1507
(dp1508
g12
I88
sg13
I0
sg14
g15
sg16
I0
sg17
I0
sbag6
(g7
g8
Ntp1509
Rp1510
(dp1511
g12
I84
sg13
I68
sg14
g15
sg16
I0
sg17
I0
sbag6
(g7
g8
Ntp1512
Rp1513
(dp1514
g12
I84
sg13
I0
sg14
g15
sg16
I0
sg17
I0
sbag6
(g7
g8
Ntp1515
Rp1516
(dp1517
g12
I79
sg13
I64
sg14
g15
sg16
I0
sg17
I0
sbag6
(g7
g8
Ntp1518
Rp1519
(dp1520
g12
I77
sg13
I64
sg14
g15
sg16
I0
sg17
I0
sbag6
(g7
g8
Ntp1521
Rp1522
(dp1523
g12
I77
sg13
I0
sg14
g15
sg16
I0
sg17
I0
sbag6
(g7
g8
Ntp1524
Rp1525
(dp1526
g12
I79
sg13
I0
sg14
g15
sg16
I0
sg17
I0
sbag6
(g7
g8
Ntp1527
Rp1528
(dp1529
g12
I76
sg13
I80
sg14
g15
sg16
I0
sg17
I0
sbag6
(g7
g8
Ntp1530
Rp1531
(dp1532
g12
I72
sg13
I83
sg14
g15
sg16
I0
sg17
I0
sbag6
(g7
g8
Ntp1533
Rp1534
(dp1535
g12
I76
sg13
I0
sg14
g15
sg16
I0
sg17
I0
sbag6
(g7
g8
Ntp1536
Rp1537
(dp1538
g12
I72
sg13
I0
sg14
g15
sg16
I0
sg17
I0
sbag6
(g7
g8
Ntp1539
Rp1540
(dp1541
g12
I67
sg13
I62
sg14
g15
sg16
I0
sg17
I0
sbag6
(g7
g8
Ntp1542
Rp1543
(dp1544
g12
I69
sg13
I43
sg14
g15
sg16
I0
sg17
I0
sbag6
(g7
g8
Ntp1545
Rp1546
(dp1547
g12
I69
sg13
I0
sg14
g15
sg16
I0
sg17
I0
sbag6
(g7
g8
Ntp1548
Rp1549
(dp1550
g12
I67
sg13
I0
sg14
g15
sg16
I0
sg17
I0
sbag6
(g7
g8
Ntp1551
Rp1552
(dp1553
g12
I64
sg13
I63
sg14
g15
sg16
I0
sg17
I0
sbag6
(g7
g8
Ntp1554
Rp1555
(dp1556
g12
I65
sg13
I67
sg14
g15
sg16
I0
sg17
I0
sbag6
(g7
g8
Ntp1557
Rp1558
(dp1559
g12
I65
sg13
I0
sg14
g15
sg16
I0
sg17
I0
sbag6
(g7
g8
Ntp1560
Rp1561
(dp1562
g12
I64
sg13
I0
sg14
g15
sg16
I0
sg17
I0
sbag6
(g7
g8
Ntp1563
Rp1564
(dp1565
g12
I60
sg13
I85
sg14
g15
sg16
I0
sg17
I0
sbag6
(g7
g8
Ntp1566
Rp1567
(dp1568
g12
I60
sg13
I0
sg14
g15
sg16
I0
sg17
I0
sbag6
(g7
g8
Ntp1569
Rp1570
(dp1571
g12
I65
sg13
I75
sg14
g15
sg16
I0
sg17
I0
sbag6
(g7
g8
Ntp1572
Rp1573
(dp1574
g12
I67
sg13
I71
sg14
g15
sg16
I0
sg17
I0
sbag6
(g7
g8
Ntp1575
Rp1576
(dp1577
g12
I65
sg13
I0
sg14
g15
sg16
I0
sg17
I0
sbag6
(g7
g8
Ntp1578
Rp1579
(dp1580
g12
I68
sg13
I71
sg14
g15
sg16
I0
sg17
I0
sbag6
(g7
g8
Ntp1581
Rp1582
(dp1583
g12
I67
sg13
I0
sg14
g15
sg16
I0
sg17
I0
sbag6
(g7
g8
Ntp1584
Rp1585
(dp1586
g12
I70
sg13
I68
sg14
g15
sg16
I0
sg17
I0
sbag6
(g7
g8
Ntp1587
Rp1588
(dp1589
g12
I68
sg13
I0
sg14
g15
sg16
I0
sg17
I0
sbag6
(g7
g8
Ntp1590
Rp1591
(dp1592
g12
I68
sg13
I66
sg14
g15
sg16
I0
sg17
I0
sbag6
(g7
g8
Ntp1593
Rp1594
(dp1595
g12
I70
sg13
I0
sg14
g15
sg16
I0
sg17
I0
sbag6
(g7
g8
Ntp1596
Rp1597
(dp1598
g12
I67
sg13
I79
sg14
g15
sg16
I0
sg17
I0
sbag6
(g7
g8
Ntp1599
Rp1600
(dp1601
g12
I68
sg13
I0
sg14
g15
sg16
I0
sg17
I0
sbag6
(g7
g8
Ntp1602
Rp1603
(dp1604
g12
I67
sg13
I0
sg14
g15
sg16
I0
sg17
I0
sbag6
(g7
g8
Ntp1605
Rp1606
(dp1607
g12
I65
sg13
I76
sg14
g15
sg16
I0
sg17
I0
sbag6
(g7
g8
Ntp1608
Rp1609
(dp1610
g12
I63
sg13
I72
sg14
g15
sg16
I0
sg17
I0
sbag6
(g7
g8
Ntp1611
Rp1612
(dp1613
g12
I65
sg13
I0
sg14
g15
sg16
I0
sg17
I0
sbag6
(g7
g8
Ntp1614
Rp1615
(dp1616
g12
I63
sg13
I0
sg14
g15
sg16
I0
sg17
I0
sbag6
(g7
g8
Ntp1617
Rp1618
(dp1619
g12
I61
sg13
I76
sg14
g15
sg16
I0
sg17
I0
sbag6
(g7
g8
Ntp1620
Rp1621
(dp1622
g12
I60
sg13
I75
sg14
g15
sg16
I0
sg17
I0
sbag6
(g7
g8
Ntp1623
Rp1624
(dp1625
g12
I61
sg13
I0
sg14
g15
sg16
I0
sg17
I0
sbag6
(g7
g8
Ntp1626
Rp1627
(dp1628
g12
I58
sg13
I63
sg14
g15
sg16
I0
sg17
I0
sbag6
(g7
g8
Ntp1629
Rp1630
(dp1631
g12
I60
sg13
I0
sg14
g15
sg16
I0
sg17
I0
sbag6
(g7
g8
Ntp1632
Rp1633
(dp1634
g12
I56
sg13
I64
sg14
g15
sg16
I0
sg17
I0
sbag6
(g7
g8
Ntp1635
Rp1636
(dp1637
g12
I58
sg13
I0
sg14
g15
sg16
I0
sg17
I0
sbag6
(g7
g8
Ntp1638
Rp1639
(dp1640
g12
I55
sg13
I81
sg14
g15
sg16
I0
sg17
I0
sbag6
(g7
g8
Ntp1641
Rp1642
(dp1643
g12
I56
sg13
I0
sg14
g15
sg16
I0
sg17
I0
sbag6
(g7
g8
Ntp1644
Rp1645
(dp1646
g12
I53
sg13
I69
sg14
g15
sg16
I0
sg17
I0
sbag6
(g7
g8
Ntp1647
Rp1648
(dp1649
g12
I55
sg13
I0
sg14
g15
sg16
I0
sg17
I0
sbag6
(g7
g8
Ntp1650
Rp1651
(dp1652
g12
I53
sg13
I0
sg14
g15
sg16
I0
sg17
I0
sbag6
(g7
g8
Ntp1653
Rp1654
(dp1655
g12
I51
sg13
I72
sg14
g15
sg16
I0
sg17
I0
sbag6
(g7
g8
Ntp1656
Rp1657
(dp1658
g12
I49
sg13
I80
sg14
g15
sg16
I0
sg17
I0
sbag6
(g7
g8
Ntp1659
Rp1660
(dp1661
g12
I51
sg13
I0
sg14
g15
sg16
I0
sg17
I0
sbag6
(g7
g8
Ntp1662
Rp1663
(dp1664
g12
I49
sg13
I0
sg14
g15
sg16
I0
sg17
I0
sbag6
(g7
g8
Ntp1665
Rp1666
(dp1667
g12
I48
sg13
I72
sg14
g15
sg16
I0
sg17
I0
sbag6
(g7
g8
Ntp1668
Rp1669
(dp1670
g12
I48
sg13
I0
sg14
g15
sg16
I0
sg17
I0
sbag6
(g7
g8
Ntp1671
Rp1672
(dp1673
g12
I46
sg13
I80
sg14
g15
sg16
I0
sg17
I0
sbag6
(g7
g8
Ntp1674
Rp1675
(dp1676
g12
I44
sg13
I58
sg14
g15
sg16
I0
sg17
I0
sbag6
(g7
g8
Ntp1677
Rp1678
(dp1679
g12
I46
sg13
I0
sg14
g15
sg16
I0
sg17
I0
sbag6
(g7
g8
Ntp1680
Rp1681
(dp1682
g12
I43
sg13
I77
sg14
g15
sg16
I0
sg17
I0
sbag6
(g7
g8
Ntp1683
Rp1684
(dp1685
g12
I44
sg13
I0
sg14
g15
sg16
I0
sg17
I0
sbag6
(g7
g8
Ntp1686
Rp1687
(dp1688
g12
I41
sg13
I80
sg14
g15
sg16
I0
sg17
I0
sbag6
(g7
g8
Ntp1689
Rp1690
(dp1691
g12
I43
sg13
I0
sg14
g15
sg16
I0
sg17
I0
sbag6
(g7
g8
Ntp1692
Rp1693
(dp1694
g12
I41
sg13
I0
sg14
g15
sg16
I0
sg17
I0
sbasS'times'
p1695
(lp1696
F0.9286689758300781
aF1.3206651210784912
aF1.341120958328247
aF1.5632710456848145
aF1.5783460140228271
aF1.7480061054229736
aF1.7545371055603027
aF1.93007493019104
aF1.9378349781036377
aF2.0833029747009277
aF2.1050491333007812
aF2.2225840091705322
aF2.22973895072937
aF2.3810720443725586
aF2.3964130878448486
aF2.5246739387512207
aF2.547290086746216
aF2.6631710529327393
aF2.682586908340454
aF2.789396047592163
aF2.792253017425537
aF2.899169921875
aF2.9157869815826416
aF3.0324110984802246
aF3.0374181270599365
aF3.125976085662842
aF3.1356139183044434
aF3.238093137741089
aF3.256071090698242
aF3.4947550296783447
aF3.5074830055236816
aF3.6005539894104004
aF3.603214979171753
aF3.7137949466705322
aF3.736609935760498
aF3.8470780849456787
aF3.8603761196136475
aF3.971195936203003
aF3.9854540824890137
aF4.053438901901245
aF4.079157114028931
aF4.163243055343628
aF4.189646005630493
aF4.288664102554321
aF4.2910051345825195
aF4.388356924057007
aF4.396521091461182
aF4.494930982589722
aF4.503191947937012
aF4.600579023361206
aF4.610090970993042
aF4.692183971405029
aF4.710050106048584
aF4.784688949584961
aF4.811645030975342
aF4.858029127120972
aF4.899322032928467
aF4.99645209312439
aF4.999475002288818
aF5.103856086730957
aF5.10622501373291
aF5.163726091384888
aF5.206552028656006
aF5.315967082977295
aF5.3198981285095215
aF5.413165092468262
aF5.416080951690674
aF5.507056951522827
aF5.515247106552124
aF5.616457939147949
aF5.623337984085083
aF5.719765901565552
aF5.758491039276123
aF5.837702989578247
aF5.840703010559082
aF5.922118902206421
aF5.937374114990234
aF5.970035076141357
aF6.012083053588867
aF6.105356931686401
aF6.13777494430542
aF6.2518370151519775
aF6.26252007484436
aF6.345552921295166
aF6.35586404800415
aF6.4323039054870605
aF6.457921028137207
aF6.561463117599487
aF6.5997209548950195
aF6.64157509803772
aF6.660721063613892
aF6.733716011047363
aF6.747322082519531
aF6.834820032119751
aF6.844636917114258
aF6.9175660610198975
aF6.941638946533203
aF7.000543117523193
aF7.036128044128418
aF7.0871970653533936
aF7.102380037307739
aF7.191914081573486
aF7.230545997619629
aF7.263811111450195
aF7.294021129608154
aF7.351933002471924
aF7.36141300201416
aF7.428299903869629
aF7.44436502456665
aF7.540333032608032
aF7.561198949813843
aF7.631740093231201
aF7.659748077392578
aF7.711250066757202
aF7.737752914428711
aF7.846969127655029
aF7.872431039810181
aF7.901782989501953
aF7.9057700634002686
aF7.9999449253082275
aF8.007810115814209
aF8.15099310874939
aF8.866204977035522
aF9.000550985336304
aF9.009385108947754
aF9.118853092193604
aF9.137814998626709
aF9.177388906478882
aF9.254540920257568
aF9.347301006317139
aF9.394908905029297
aF9.499848127365112
aF9.507946014404297
aF9.578197956085205
aF9.684377908706665
aF9.693963050842285
aF9.75571894645691
aF9.76331090927124
aF9.801548957824707
aF9.90702509880066
aF9.908553123474121
aF10.041079044342041
aF10.043950080871582
aF10.164979934692383
aF10.177243947982788
aF10.304367065429688
aF10.323265075683594
aF10.437169075012207
aF10.440177917480469
aF10.496388912200928
aF10.562724113464355
aF10.704086065292358
aF10.715282917022705
aF10.851017951965332
aF10.87116003036499
aF10.944724082946777
aF11.037828922271729
aF11.142802953720093
aF11.206169128417969
aF11.340989112854004
aF11.38277292251587
aF11.531918048858643
aF11.919142007827759
aF12.08219313621521
aF12.091438055038452
aF12.248269081115723
aF12.259292125701904
aF12.303937911987305
aF12.432581901550293
aF12.593500137329102
aF12.60033893585205
aF12.77902102470398
aF12.781927108764648
aF12.827183961868286
aF12.963999032974243
aF13.11640191078186
aF13.129631996154785
aF13.24065613746643
aF13.27020001411438
aF13.39180302619934
aF13.405717134475708
aF13.526603937149048
aF13.537750959396362
aF13.658414125442505
aF13.66257095336914
aF13.766601085662842
aF13.767875909805298
aF13.819286108016968
aF13.9060959815979
aF13.967435121536255
aF14.032915115356445
aF14.111922979354858
aF14.171468019485474
aF14.227622985839844
aF14.306427955627441
aF14.43705701828003
aF14.438524961471558
aF14.548469066619873
aF14.582775115966797
aF14.64665699005127
aF14.714080095291138
aF14.76860499382019
aF14.856298923492432
aF14.964720964431763
aF14.998346090316772
aF15.126009941101074
aF15.133219003677368
aF15.248387098312378
aF15.287058115005493
aF15.341681957244873
aF15.442323923110962
aF15.498423099517822
aF15.602340936660767
aF15.688129901885986
aF15.731192111968994
aF15.84323501586914
aF16.03961706161499
aF16.261122941970825
aF16.265399932861328
aF16.40415096282959
aF16.409116983413696
aF16.480284929275513
aF16.568910121917725
aF16.683255910873413
aF16.712034940719604
aF16.769185066223145
aF16.81337308883667
aF16.862217903137207
aF16.864885091781616
aF16.899389028549194
aF16.912780046463013
aF17.127273082733154
aF17.584924936294556
aF17.64383101463318
aF17.67142391204834
aF17.715748071670532
aF17.727160930633545
aF17.79266905784607
aF17.80069899559021
aF17.98413896560669
aF18.345319032669067
aF18.393959045410156
aF18.41002607345581
aF18.453980922698975
aF18.461808919906616
aF18.546072959899902
aF18.57061004638672
aF18.61986804008484
aF18.63210701942444
aF18.689552068710327
aF18.74984312057495
aF18.76192808151245
aF18.8072190284729
aF18.826802015304565
aF18.86861801147461
aF18.884937047958374
aF18.906656980514526
aF18.95129704475403
aF18.99444603919983
aF19.08175802230835
aF19.098011016845703
aF19.163958072662354
aF19.177168130874634
aF19.236791133880615
aF19.26655602455139
aF19.285535097122192
aF19.328229904174805
aF19.52740502357483
aF19.591192960739136
aF19.64389991760254
aF19.672487020492554
aF19.703843116760254
aF19.75635004043579
aF19.775471925735474
aF19.811847925186157
aF19.8486270904541
aF19.871602058410645
aF19.94287610054016
aF19.954076051712036
aF20.038289070129395
aF20.04741597175598
aF20.112798929214478
aF20.122956037521362
aF20.177693128585815
aF20.218619108200073
aF20.30236291885376
aF20.36991310119629
aF20.389671087265015
aF20.408222913742065
aF20.463664054870605
aF20.480152130126953
aF20.563631057739258
aF20.588606119155884
aF20.654397010803223
aF20.675501108169556
aF20.73042106628418
aF20.746899127960205
aF20.820884943008423
aF20.835572004318237
aF20.90341305732727
aF20.98288106918335
aF20.98443293571472
aF21.010926961898804
aF21.050211906433105
aF21.052627086639404
aF21.153768062591553
aF21.15891408920288
aF21.239269018173218
aF21.266724109649658
aF21.312334060668945
aF21.34600591659546
aF21.409029006958008
aF21.4242000579834
aF21.49143695831299
aF21.538634061813354
aF21.564171075820923
aF21.572511911392212
aF21.648293018341064
aF21.651222944259644
aF21.973889112472534
aF22.013088941574097
aF22.05869197845459
aF22.097475051879883
aF22.14873504638672
aF22.178486108779907
aF22.21686601638794
aF22.234004974365234
aF22.352009057998657
aF22.352025032043457
aF22.419513940811157
aF22.434051990509033
aF22.52018690109253
aF22.526833057403564
aF22.61436104774475
aF22.638129949569702
aF22.683767080307007
aF22.726349115371704
aF22.782161951065063
aF22.792547941207886
aF22.826398134231567
aF22.86207604408264
aF22.954678058624268
aF22.964327096939087
aF23.007555961608887
aF23.06001091003418
aF23.112015962600708
aF23.150222063064575
aF23.246251106262207
aF23.267303943634033
aF23.335243940353394
aF23.374426126480103
aF23.416438102722168
aF23.43971610069275
aF23.481763124465942
aF23.514389038085938
aF23.621516942977905
aF23.623044967651367
aF23.70778799057007
aF23.722749948501587
aF23.778643131256104
aF23.810741901397705
aF23.91330099105835
aF23.92713499069214
aF23.974509954452515
aF23.984265089035034
aF24.044224977493286
aF24.079673051834106
aF24.12599492073059
aF24.138356924057007
aF24.247496128082275
aF24.29517102241516
aF24.311310052871704
aF24.366219997406006
aF24.372618913650513
aF24.426743984222412
aF24.470437049865723
aF24.471965074539185
aF24.514137029647827
aF24.56365203857422
aF24.631789922714233
aF24.63439393043518
aF24.723652124404907
aF24.72366690635681
aF24.793237924575806
aF24.815498113632202
aF24.899784088134766
aF24.90357804298401
aF24.957063913345337
aF24.961206912994385
aF25.050825119018555
aF25.062885999679565
aF25.117346048355103
aF25.152097940444946
aF25.237777948379517
aF25.250109910964966
aF25.328014135360718
aF25.347464084625244
aF25.427314043045044
aF25.436721086502075
aF25.499288082122803
aF25.606454133987427
aF25.695436000823975
aF25.714489936828613
aF25.81283402442932
aF25.825210094451904
aF25.937904119491577
aF25.947757959365845
aF26.014341115951538
aF26.0605571269989
aF26.16084599494934
aF26.185140132904053
aF26.28934097290039
aF26.301867961883545
aF26.417827129364014
aF26.41918110847473
aF26.5018789768219
aF26.530869960784912
aF26.629213094711304
aF26.656188011169434
aF26.762362957000732
aF26.777863025665283
aF26.87699294090271
aF26.91508412361145
aF27.025864124298096
aF27.073085069656372
aF27.225039958953857
aF27.227982997894287
aF27.370930910110474
aF27.41246795654297
aF27.535067081451416
aF27.59047508239746
aF27.736259937286377
aF28.14028811454773
aF28.591602087020874
aF28.601094961166382
aF28.759851932525635
aF28.790435075759888
aF29.036792039871216
aF29.048144102096558
aF29.355902910232544
aF29.394284963607788
aF29.69885802268982
aF29.71720600128174
aF29.99189805984497
aF29.996335983276367
aF30.302037954330444
aF30.31030511856079
aF30.583940029144287
aF30.608354091644287
aF30.857401132583618
aF30.903146982192993
aF31.205025911331177
aF31.215718030929565
aF31.48918604850769
aF31.52696204185486
aF31.741606950759888
aF31.804688930511475
aF32.11477994918823
aF32.128710985183716
aF32.42598295211792
aF32.45591711997986
aF32.73494601249695
aF32.73743391036987
aF32.904268980026245
aF32.913002014160156
aF33.08001112937927
aF33.085521936416626
aF33.26481103897095
aF33.26896691322327
aF33.386707067489624
aF33.42208695411682
aF33.59675598144531
aF33.606215953826904
aF33.766995906829834
aF33.79079294204712
aF33.93645000457764
aF33.95012307167053
aF34.09710192680359
aF34.109220027923584
aF34.22272300720215
aF34.27168011665344
aF34.442282915115356
aF34.46192502975464
aF34.61060810089111
aF34.631158113479614
aF34.71297097206116
aF34.78266501426697
aF34.94725513458252
aF34.952337980270386
aF35.11703109741211
aF35.133415937423706
aF35.27332901954651
aF35.28497099876404
aF35.43483304977417
aF35.44993805885315
aF35.607330083847046
aF35.62770104408264
aF35.777852058410645
aF35.77937912940979
aF35.87955594062805
aF35.93571710586548
aF35.940139055252075
aF35.991816997528076
aF36.108319997787476
aF36.11122798919678
aF36.28435206413269
aF36.284367084503174
aF36.4149489402771
aF36.45509600639343
aF36.480802059173584
aF36.543118953704834
aF36.627814054489136
aF36.64073395729065
aF36.65245199203491
aF36.694464921951294
aF36.79985499382019
aF36.809301137924194
aF37.004908084869385
aF37.50248908996582
aF37.85137605667114
aF37.877795934677124
aF37.91641402244568
aF37.959150075912476
aF38.00265908241272
aF38.008142948150635
aF38.09587502479553
aF38.14074397087097
aF38.20903706550598
aF38.219403982162476
aF38.300496101379395
aF38.302037954330444
aF38.59508299827576
aF38.59517002105713
aF38.65261697769165
aF38.66730308532715
aF38.75274300575256
aF38.7596230506897
aF38.98332095146179
aF38.98961806297302
aF39.056694984436035
aF39.111923933029175
aF39.137255907058716
aF39.16435408592224
aF39.23672103881836
aF39.245786905288696
aF39.420287132263184
aF39.436052083969116
aF39.51618695259094
aF39.5273220539093
aF39.60171103477478
aF39.60856604576111
aF39.726475954055786
aF39.737818002700806
aF39.80332612991333
aF39.86478090286255
aF39.87891411781311
aF39.91365909576416
aF39.9681351184845
aF39.99195599555969
aF40.132007122039795
asb.